
C:/Users/nahue/Desktop/Accesos Directos/GitHUB/EGA/Software/EGA_TD3/Firmware/build/firmware.elf:     file format elf32-littlearm

Sections:
Idx Name          Size      VMA       LMA       File off  Algn
  0 .text         00005840  10000000  10000000  00001000  2**3
                  CONTENTS, ALLOC, LOAD, READONLY, CODE
  1 .rodata       000001f8  10005840  10005840  00006840  2**3
                  CONTENTS, ALLOC, LOAD, READONLY, DATA
  2 .ARM.exidx    00000008  10005a38  10005a38  00006a38  2**2
                  CONTENTS, ALLOC, LOAD, READONLY, DATA
  3 .binary_info  00000020  10005a40  10005a40  00006a40  2**2
                  CONTENTS, ALLOC, LOAD, READONLY, DATA
  4 .ram_vector_table 00000110  20000000  20000000  00009000  2**2
                  ALLOC
  5 .uninitialized_data 00000000  20000110  20000110  00008824  2**0
                  CONTENTS
  6 .data         00000db0  20000110  10005a60  00007110  2**3
                  CONTENTS, ALLOC, LOAD, READONLY, CODE
  7 .tdata        00000000  20000ec0  20000ec0  00008824  2**0
                  CONTENTS, ALLOC, LOAD, DATA, THREAD_LOCAL
  8 .tbss         00000000  20000ec0  20000ec0  00000000  2**0
                  ALLOC, THREAD_LOCAL
  9 .bss          0000054c  20000ec0  10006810  00008ec0  2**3
                  ALLOC
 10 .heap         00000800  2000140c  2000140c  00008824  2**2
                  CONTENTS, READONLY
 11 .scratch_x    00000000  20080000  20080000  00009024  2**0
                  CONTENTS
 12 .scratch_y    00000000  20081000  20081000  00009024  2**0
                  CONTENTS
 13 .stack_dummy  00000800  20081000  20081000  00009040  2**5
                  CONTENTS, READONLY
 14 .flash_end    00000014  10006810  10006810  00008810  2**2
                  CONTENTS, ALLOC, LOAD, READONLY, DATA
 15 .ARM.attributes 00000034  00000000  00000000  00009840  2**0
                  CONTENTS, READONLY
 16 .comment      00000045  00000000  00000000  00009874  2**0
                  CONTENTS, READONLY
 17 .debug_info   0002cf42  00000000  00000000  000098b9  2**0
                  CONTENTS, READONLY, DEBUGGING, OCTETS
 18 .debug_abbrev 00007ab8  00000000  00000000  000367fb  2**0
                  CONTENTS, READONLY, DEBUGGING, OCTETS
 19 .debug_loclists 000161e6  00000000  00000000  0003e2b3  2**0
                  CONTENTS, READONLY, DEBUGGING, OCTETS
 20 .debug_aranges 00001218  00000000  00000000  000544a0  2**3
                  CONTENTS, READONLY, DEBUGGING, OCTETS
 21 .debug_rnglists 00003d1b  00000000  00000000  000556b8  2**0
                  CONTENTS, READONLY, DEBUGGING, OCTETS
 22 .debug_line   0001f9ee  00000000  00000000  000593d3  2**0
                  CONTENTS, READONLY, DEBUGGING, OCTETS
 23 .debug_str    0000803e  00000000  00000000  00078dc1  2**0
                  CONTENTS, READONLY, DEBUGGING, OCTETS
 24 .debug_frame  00003718  00000000  00000000  00080e00  2**2
                  CONTENTS, READONLY, DEBUGGING, OCTETS
 25 .debug_line_str 000002b8  00000000  00000000  00084518  2**0
                  CONTENTS, READONLY, DEBUGGING, OCTETS

C:/Users/nahue/Desktop/Accesos Directos/GitHUB/EGA/Software/EGA_TD3/Firmware/build/firmware.elf:     file format elf32-littlearm


Disassembly of section .text:

10000000 <__VECTOR_TABLE>:
10000000:	20082000 	.word	0x20082000
10000004:	1000015d 	.word	0x1000015d
10000008:	10000113 	.word	0x10000113
1000000c:	10000115 	.word	0x10000115
10000010:	10000111 	.word	0x10000111
10000014:	10000111 	.word	0x10000111
10000018:	10000111 	.word	0x10000111
1000001c:	10000111 	.word	0x10000111
10000020:	10000111 	.word	0x10000111
10000024:	10000111 	.word	0x10000111
10000028:	10000111 	.word	0x10000111
1000002c:	100043f5 	.word	0x100043f5
10000030:	10000111 	.word	0x10000111
10000034:	10000111 	.word	0x10000111
10000038:	10004375 	.word	0x10004375
1000003c:	100040d1 	.word	0x100040d1
10000040:	1000011d 	.word	0x1000011d
10000044:	1000011d 	.word	0x1000011d
10000048:	1000011d 	.word	0x1000011d
1000004c:	1000011d 	.word	0x1000011d
10000050:	1000011d 	.word	0x1000011d
10000054:	1000011d 	.word	0x1000011d
10000058:	1000011d 	.word	0x1000011d
1000005c:	1000011d 	.word	0x1000011d
10000060:	1000011d 	.word	0x1000011d
10000064:	1000011d 	.word	0x1000011d
10000068:	1000011d 	.word	0x1000011d
1000006c:	1000011d 	.word	0x1000011d
10000070:	1000011d 	.word	0x1000011d
10000074:	1000011d 	.word	0x1000011d
10000078:	1000011d 	.word	0x1000011d
1000007c:	1000011d 	.word	0x1000011d
10000080:	1000011d 	.word	0x1000011d
10000084:	1000011d 	.word	0x1000011d
10000088:	1000011d 	.word	0x1000011d
1000008c:	1000011d 	.word	0x1000011d
10000090:	1000011d 	.word	0x1000011d
10000094:	1000011d 	.word	0x1000011d
10000098:	1000011d 	.word	0x1000011d
1000009c:	1000011d 	.word	0x1000011d
100000a0:	1000011d 	.word	0x1000011d
100000a4:	1000011d 	.word	0x1000011d
100000a8:	1000011d 	.word	0x1000011d
100000ac:	1000011d 	.word	0x1000011d
100000b0:	1000011d 	.word	0x1000011d
100000b4:	1000011d 	.word	0x1000011d
100000b8:	1000011d 	.word	0x1000011d
100000bc:	1000011d 	.word	0x1000011d
100000c0:	1000011d 	.word	0x1000011d
100000c4:	1000011d 	.word	0x1000011d
100000c8:	1000011d 	.word	0x1000011d
100000cc:	1000011d 	.word	0x1000011d
100000d0:	1000011d 	.word	0x1000011d
100000d4:	1000011d 	.word	0x1000011d
100000d8:	1000011d 	.word	0x1000011d
100000dc:	1000011d 	.word	0x1000011d
100000e0:	1000011d 	.word	0x1000011d
100000e4:	1000011d 	.word	0x1000011d
100000e8:	1000011d 	.word	0x1000011d
100000ec:	1000011d 	.word	0x1000011d
100000f0:	1000011d 	.word	0x1000011d
100000f4:	1000011d 	.word	0x1000011d
100000f8:	1000011d 	.word	0x1000011d
100000fc:	1000011d 	.word	0x1000011d
10000100:	1000011d 	.word	0x1000011d
10000104:	1000011d 	.word	0x1000011d
10000108:	1000011d 	.word	0x1000011d
1000010c:	1000011d 	.word	0x1000011d

10000110 <isr_invalid>:
10000110:	be00      	bkpt	0x0000

10000112 <isr_nmi>:
10000112:	be00      	bkpt	0x0000

10000114 <isr_hardfault>:
10000114:	be00      	bkpt	0x0000
10000116:	be00      	bkpt	0x0000
10000118:	be00      	bkpt	0x0000
1000011a:	be00      	bkpt	0x0000

1000011c <__unhandled_user_irq>:
1000011c:	f3ef 8005 	mrs	r0, IPSR
10000120:	3810      	subs	r0, #16

10000122 <unhandled_user_irq_num_in_r0>:
10000122:	be00      	bkpt	0x0000

10000124 <binary_info_header>:
10000124:	7188ebf2 	.word	0x7188ebf2
10000128:	10005a40 	.word	0x10005a40
1000012c:	10005a60 	.word	0x10005a60
10000130:	100001a8 	.word	0x100001a8
10000134:	e71aa390 	.word	0xe71aa390

10000138 <__binary_info_header_end>:
10000138:	ffffded3 	.word	0xffffded3
1000013c:	10210142 	.word	0x10210142
10000140:	000001ff 	.word	0x000001ff
10000144:	000066d8 	.word	0x000066d8
10000148:	ab123579 	.word	0xab123579

1000014c <_entry_point>:
1000014c:	f04f 0000 	mov.w	r0, #0

10000150 <_enter_vtable_in_r0>:
10000150:	4920      	ldr	r1, [pc, #128]	@ (100001d4 <data_cpy_table+0x2c>)
10000152:	6008      	str	r0, [r1, #0]
10000154:	c806      	ldmia	r0!, {r1, r2}
10000156:	f381 8808 	msr	MSP, r1
1000015a:	4710      	bx	r2

1000015c <_reset_handler>:
1000015c:	f04f 4050 	mov.w	r0, #3489660928	@ 0xd0000000
10000160:	6800      	ldr	r0, [r0, #0]
10000162:	b110      	cbz	r0, 1000016a <hold_non_core0_in_bootrom+0x6>

10000164 <hold_non_core0_in_bootrom>:
10000164:	f04f 0000 	mov.w	r0, #0
10000168:	e7f2      	b.n	10000150 <_enter_vtable_in_r0>
1000016a:	a40f      	add	r4, pc, #60	@ (adr r4, 100001a8 <data_cpy_table>)
1000016c:	cc0e      	ldmia	r4!, {r1, r2, r3}
1000016e:	2900      	cmp	r1, #0
10000170:	d002      	beq.n	10000178 <hold_non_core0_in_bootrom+0x14>
10000172:	f000 f815 	bl	100001a0 <data_cpy>
10000176:	e7f9      	b.n	1000016c <hold_non_core0_in_bootrom+0x8>
10000178:	4917      	ldr	r1, [pc, #92]	@ (100001d8 <data_cpy_table+0x30>)
1000017a:	4a18      	ldr	r2, [pc, #96]	@ (100001dc <data_cpy_table+0x34>)
1000017c:	2000      	movs	r0, #0
1000017e:	e000      	b.n	10000182 <bss_fill_test>

10000180 <bss_fill_loop>:
10000180:	c101      	stmia	r1!, {r0}

10000182 <bss_fill_test>:
10000182:	4291      	cmp	r1, r2
10000184:	d1fc      	bne.n	10000180 <bss_fill_loop>

10000186 <platform_entry>:
10000186:	2000      	movs	r0, #0
10000188:	f380 880a 	msr	MSPLIM, r0
1000018c:	4914      	ldr	r1, [pc, #80]	@ (100001e0 <data_cpy_table+0x38>)
1000018e:	4788      	blx	r1
10000190:	4914      	ldr	r1, [pc, #80]	@ (100001e4 <data_cpy_table+0x3c>)
10000192:	4788      	blx	r1
10000194:	4914      	ldr	r1, [pc, #80]	@ (100001e8 <data_cpy_table+0x40>)
10000196:	4788      	blx	r1
10000198:	be00      	bkpt	0x0000
1000019a:	e7fd      	b.n	10000198 <platform_entry+0x12>

1000019c <data_cpy_loop>:
1000019c:	c901      	ldmia	r1!, {r0}
1000019e:	c201      	stmia	r2!, {r0}

100001a0 <data_cpy>:
100001a0:	429a      	cmp	r2, r3
100001a2:	d3fb      	bcc.n	1000019c <data_cpy_loop>
100001a4:	4770      	bx	lr
100001a6:	bf00      	nop

100001a8 <data_cpy_table>:
100001a8:	10005a60 	.word	0x10005a60
100001ac:	20000110 	.word	0x20000110
100001b0:	20000ec0 	.word	0x20000ec0
100001b4:	10006810 	.word	0x10006810
100001b8:	20080000 	.word	0x20080000
100001bc:	20080000 	.word	0x20080000
100001c0:	10006810 	.word	0x10006810
100001c4:	20081000 	.word	0x20081000
100001c8:	20081000 	.word	0x20081000
100001cc:	00000000 	.word	0x00000000
100001d0:	4770      	bx	lr
100001d2:	0000      	.short	0x0000
100001d4:	e000ed08 	.word	0xe000ed08
100001d8:	20000ec0 	.word	0x20000ec0
100001dc:	2000140c 	.word	0x2000140c
100001e0:	10002be1 	.word	0x10002be1
100001e4:	10000339 	.word	0x10000339
100001e8:	10002bd9 	.word	0x10002bd9

100001ec <_init>:
100001ec:	b5f8      	push	{r3, r4, r5, r6, r7, lr}
100001ee:	bf00      	nop

100001f0 <register_tm_clones>:
100001f0:	4b06      	ldr	r3, [pc, #24]	@ (1000020c <register_tm_clones+0x1c>)
100001f2:	4907      	ldr	r1, [pc, #28]	@ (10000210 <register_tm_clones+0x20>)
100001f4:	1ac9      	subs	r1, r1, r3
100001f6:	1089      	asrs	r1, r1, #2
100001f8:	bf48      	it	mi
100001fa:	3101      	addmi	r1, #1
100001fc:	1049      	asrs	r1, r1, #1
100001fe:	d003      	beq.n	10000208 <register_tm_clones+0x18>
10000200:	4b04      	ldr	r3, [pc, #16]	@ (10000214 <register_tm_clones+0x24>)
10000202:	b10b      	cbz	r3, 10000208 <register_tm_clones+0x18>
10000204:	4801      	ldr	r0, [pc, #4]	@ (1000020c <register_tm_clones+0x1c>)
10000206:	4718      	bx	r3
10000208:	4770      	bx	lr
1000020a:	bf00      	nop
1000020c:	20000ec0 	.word	0x20000ec0
10000210:	20000ec0 	.word	0x20000ec0
10000214:	00000000 	.word	0x00000000

10000218 <frame_dummy>:
10000218:	b508      	push	{r3, lr}
1000021a:	4b05      	ldr	r3, [pc, #20]	@ (10000230 <frame_dummy+0x18>)
1000021c:	b11b      	cbz	r3, 10000226 <frame_dummy+0xe>
1000021e:	4905      	ldr	r1, [pc, #20]	@ (10000234 <frame_dummy+0x1c>)
10000220:	4805      	ldr	r0, [pc, #20]	@ (10000238 <frame_dummy+0x20>)
10000222:	f3af 8000 	nop.w
10000226:	e8bd 4008 	ldmia.w	sp!, {r3, lr}
1000022a:	f7ff bfe1 	b.w	100001f0 <register_tm_clones>
1000022e:	bf00      	nop
10000230:	00000000 	.word	0x00000000
10000234:	20001264 	.word	0x20001264
10000238:	10005840 	.word	0x10005840

1000023c <task_hcsr04>:
1000023c:	b508      	push	{r3, lr}
1000023e:	e006      	b.n	1000024e <task_hcsr04+0x12>
10000240:	480d      	ldr	r0, [pc, #52]	@ (10000278 <task_hcsr04+0x3c>)
10000242:	f002 fe25 	bl	10002e90 <__wrap_puts>
10000246:	f44f 60fa 	mov.w	r0, #2000	@ 0x7d0
1000024a:	f003 fb2b 	bl	100038a4 <vTaskDelay>
1000024e:	480b      	ldr	r0, [pc, #44]	@ (1000027c <task_hcsr04+0x40>)
10000250:	f004 fd0a 	bl	10004c68 <hc_sr04_get_distance_cm>
10000254:	eeff 7a00 	vmov.f32	s15, #240	@ 0xbf800000 -1.0
10000258:	ee07 0a10 	vmov	s14, r0
1000025c:	eeb4 7a67 	vcmp.f32	s14, s15
10000260:	eef1 fa10 	vmrs	APSR_nzcv, fpscr
10000264:	d0ec      	beq.n	10000240 <task_hcsr04+0x4>
10000266:	f005 fab7 	bl	100057d8 <____aeabi_f2d_veneer>
1000026a:	4602      	mov	r2, r0
1000026c:	460b      	mov	r3, r1
1000026e:	4804      	ldr	r0, [pc, #16]	@ (10000280 <task_hcsr04+0x44>)
10000270:	f002 fe8e 	bl	10002f90 <__wrap_printf>
10000274:	e7e7      	b.n	10000246 <task_hcsr04+0xa>
10000276:	bf00      	nop
10000278:	10005840 	.word	0x10005840
1000027c:	2000132c 	.word	0x2000132c
10000280:	1000585c 	.word	0x1000585c

10000284 <task_init>:
10000284:	b508      	push	{r3, lr}
10000286:	2210      	movs	r2, #16
10000288:	210f      	movs	r1, #15
1000028a:	4823      	ldr	r0, [pc, #140]	@ (10000318 <task_init+0x94>)
1000028c:	f004 fcd2 	bl	10004c34 <hc_sr04_init>
10000290:	4922      	ldr	r1, [pc, #136]	@ (1000031c <task_init+0x98>)
10000292:	4823      	ldr	r0, [pc, #140]	@ (10000320 <task_init+0x9c>)
10000294:	f002 ff50 	bl	10003138 <i2c_init>
10000298:	2103      	movs	r1, #3
1000029a:	2008      	movs	r0, #8
1000029c:	f000 f872 	bl	10000384 <gpio_set_function>
100002a0:	2103      	movs	r1, #3
100002a2:	2009      	movs	r0, #9
100002a4:	f000 f86e 	bl	10000384 <gpio_set_function>
100002a8:	2200      	movs	r2, #0
100002aa:	2101      	movs	r1, #1
100002ac:	2008      	movs	r0, #8
100002ae:	f000 f887 	bl	100003c0 <gpio_set_pulls>
100002b2:	2200      	movs	r2, #0
100002b4:	2101      	movs	r1, #1
100002b6:	2009      	movs	r0, #9
100002b8:	f000 f882 	bl	100003c0 <gpio_set_pulls>
100002bc:	f002 ff6a 	bl	10003194 <adc_init>
100002c0:	211f      	movs	r1, #31
100002c2:	201a      	movs	r0, #26
100002c4:	f000 f85e 	bl	10000384 <gpio_set_function>
100002c8:	2200      	movs	r2, #0
100002ca:	201a      	movs	r0, #26
100002cc:	4611      	mov	r1, r2
100002ce:	f000 f877 	bl	100003c0 <gpio_set_pulls>
100002d2:	2100      	movs	r1, #0
100002d4:	201a      	movs	r0, #26
100002d6:	f000 f887 	bl	100003e8 <gpio_set_input_enabled>
100002da:	4b12      	ldr	r3, [pc, #72]	@ (10000324 <task_init+0xa0>)
100002dc:	4a12      	ldr	r2, [pc, #72]	@ (10000328 <task_init+0xa4>)
100002de:	681b      	ldr	r3, [r3, #0]
100002e0:	2127      	movs	r1, #39	@ 0x27
100002e2:	f403 4370 	and.w	r3, r3, #61440	@ 0xf000
100002e6:	6013      	str	r3, [r2, #0]
100002e8:	480d      	ldr	r0, [pc, #52]	@ (10000320 <task_init+0x9c>)
100002ea:	f004 fc75 	bl	10004bd8 <lcd_init>
100002ee:	f004 fc4b 	bl	10004b88 <lcd_clear>
100002f2:	2100      	movs	r1, #0
100002f4:	4608      	mov	r0, r1
100002f6:	f004 fc4b 	bl	10004b90 <lcd_set_cursor>
100002fa:	480c      	ldr	r0, [pc, #48]	@ (1000032c <task_init+0xa8>)
100002fc:	f004 fc60 	bl	10004bc0 <lcd_string>
10000300:	480b      	ldr	r0, [pc, #44]	@ (10000330 <task_init+0xac>)
10000302:	f004 fb7f 	bl	10004a04 <pwm_init_config>
10000306:	480b      	ldr	r0, [pc, #44]	@ (10000334 <task_init+0xb0>)
10000308:	f002 fdc2 	bl	10002e90 <__wrap_puts>
1000030c:	e8bd 4008 	ldmia.w	sp!, {r3, lr}
10000310:	2000      	movs	r0, #0
10000312:	f003 b941 	b.w	10003598 <vTaskDelete>
10000316:	bf00      	nop
10000318:	2000132c 	.word	0x2000132c
1000031c:	00061a80 	.word	0x00061a80
10000320:	20000950 	.word	0x20000950
10000324:	400a0000 	.word	0x400a0000
10000328:	400a1000 	.word	0x400a1000
1000032c:	10005870 	.word	0x10005870
10000330:	20000920 	.word	0x20000920
10000334:	10005880 	.word	0x10005880

10000338 <main>:
10000338:	b500      	push	{lr}
1000033a:	b083      	sub	sp, #12
1000033c:	f002 fd64 	bl	10002e08 <stdio_init_all>
10000340:	2400      	movs	r4, #0
10000342:	f04f 0c03 	mov.w	ip, #3
10000346:	f44f 7280 	mov.w	r2, #256	@ 0x100
1000034a:	4623      	mov	r3, r4
1000034c:	e9cd c400 	strd	ip, r4, [sp]
10000350:	4908      	ldr	r1, [pc, #32]	@ (10000374 <main+0x3c>)
10000352:	4809      	ldr	r0, [pc, #36]	@ (10000378 <main+0x40>)
10000354:	f003 f89e 	bl	10003494 <xTaskCreate>
10000358:	f04f 0c02 	mov.w	ip, #2
1000035c:	f44f 7280 	mov.w	r2, #256	@ 0x100
10000360:	4623      	mov	r3, r4
10000362:	e9cd c400 	strd	ip, r4, [sp]
10000366:	4905      	ldr	r1, [pc, #20]	@ (1000037c <main+0x44>)
10000368:	4805      	ldr	r0, [pc, #20]	@ (10000380 <main+0x48>)
1000036a:	f003 f893 	bl	10003494 <xTaskCreate>
1000036e:	f003 f971 	bl	10003654 <vTaskStartScheduler>
10000372:	e7fe      	b.n	10000372 <main+0x3a>
10000374:	10005894 	.word	0x10005894
10000378:	10000285 	.word	0x10000285
1000037c:	1000589c 	.word	0x1000589c
10000380:	1000023d 	.word	0x1000023d

10000384 <gpio_set_function>:
10000384:	b410      	push	{r4}
10000386:	f44f 7480 	mov.w	r4, #256	@ 0x100
1000038a:	4b0c      	ldr	r3, [pc, #48]	@ (100003bc <gpio_set_function+0x38>)
1000038c:	f853 2020 	ldr.w	r2, [r3, r0, lsl #2]
10000390:	eb03 0380 	add.w	r3, r3, r0, lsl #2
10000394:	00c0      	lsls	r0, r0, #3
10000396:	f082 0240 	eor.w	r2, r2, #64	@ 0x40
1000039a:	f100 4080 	add.w	r0, r0, #1073741824	@ 0x40000000
1000039e:	f503 5c80 	add.w	ip, r3, #4096	@ 0x1000
100003a2:	f002 02c0 	and.w	r2, r2, #192	@ 0xc0
100003a6:	f500 3020 	add.w	r0, r0, #163840	@ 0x28000
100003aa:	f503 5340 	add.w	r3, r3, #12288	@ 0x3000
100003ae:	f8cc 2000 	str.w	r2, [ip]
100003b2:	6041      	str	r1, [r0, #4]
100003b4:	601c      	str	r4, [r3, #0]
100003b6:	f85d 4b04 	ldr.w	r4, [sp], #4
100003ba:	4770      	bx	lr
100003bc:	40038004 	.word	0x40038004

100003c0 <gpio_set_pulls>:
100003c0:	b410      	push	{r4}
100003c2:	4c08      	ldr	r4, [pc, #32]	@ (100003e4 <gpio_set_pulls+0x24>)
100003c4:	00c9      	lsls	r1, r1, #3
100003c6:	ea41 0182 	orr.w	r1, r1, r2, lsl #2
100003ca:	f854 2020 	ldr.w	r2, [r4, r0, lsl #2]
100003ce:	eb04 0380 	add.w	r3, r4, r0, lsl #2
100003d2:	4051      	eors	r1, r2
100003d4:	f503 5380 	add.w	r3, r3, #4096	@ 0x1000
100003d8:	f001 010c 	and.w	r1, r1, #12
100003dc:	f85d 4b04 	ldr.w	r4, [sp], #4
100003e0:	6019      	str	r1, [r3, #0]
100003e2:	4770      	bx	lr
100003e4:	40038004 	.word	0x40038004

100003e8 <gpio_set_input_enabled>:
100003e8:	4b06      	ldr	r3, [pc, #24]	@ (10000404 <gpio_set_input_enabled+0x1c>)
100003ea:	2240      	movs	r2, #64	@ 0x40
100003ec:	eb03 0380 	add.w	r3, r3, r0, lsl #2
100003f0:	b119      	cbz	r1, 100003fa <gpio_set_input_enabled+0x12>
100003f2:	f503 5300 	add.w	r3, r3, #8192	@ 0x2000
100003f6:	601a      	str	r2, [r3, #0]
100003f8:	4770      	bx	lr
100003fa:	f503 5340 	add.w	r3, r3, #12288	@ 0x3000
100003fe:	601a      	str	r2, [r3, #0]
10000400:	4770      	bx	lr
10000402:	bf00      	nop
10000404:	40038004 	.word	0x40038004

10000408 <gpio_init>:
10000408:	b430      	push	{r4, r5}
1000040a:	f04f 0300 	mov.w	r3, #0
1000040e:	ec43 0044 	gpioc_bit_oe_put r0, r3
10000412:	ec43 0040 	gpioc_bit_out_put r0, r3
10000416:	2505      	movs	r5, #5
10000418:	f44f 7480 	mov.w	r4, #256	@ 0x100
1000041c:	4b0b      	ldr	r3, [pc, #44]	@ (1000044c <gpio_init+0x44>)
1000041e:	00c2      	lsls	r2, r0, #3
10000420:	f853 1020 	ldr.w	r1, [r3, r0, lsl #2]
10000424:	eb03 0080 	add.w	r0, r3, r0, lsl #2
10000428:	f081 0140 	eor.w	r1, r1, #64	@ 0x40
1000042c:	f102 4380 	add.w	r3, r2, #1073741824	@ 0x40000000
10000430:	f503 3320 	add.w	r3, r3, #163840	@ 0x28000
10000434:	f001 02c0 	and.w	r2, r1, #192	@ 0xc0
10000438:	f500 5180 	add.w	r1, r0, #4096	@ 0x1000
1000043c:	f500 5040 	add.w	r0, r0, #12288	@ 0x3000
10000440:	600a      	str	r2, [r1, #0]
10000442:	605d      	str	r5, [r3, #4]
10000444:	6004      	str	r4, [r0, #0]
10000446:	bc30      	pop	{r4, r5}
10000448:	4770      	bx	lr
1000044a:	bf00      	nop
1000044c:	40038004 	.word	0x40038004

10000450 <panic>:
10000450:	b40f      	push	{r0, r1, r2, r3}
10000452:	b500      	push	{lr}
10000454:	b083      	sub	sp, #12
10000456:	9c04      	ldr	r4, [sp, #16]
10000458:	4807      	ldr	r0, [pc, #28]	@ (10000478 <panic+0x28>)
1000045a:	f002 fd19 	bl	10002e90 <__wrap_puts>
1000045e:	b13c      	cbz	r4, 10000470 <panic+0x20>
10000460:	a905      	add	r1, sp, #20
10000462:	4620      	mov	r0, r4
10000464:	9101      	str	r1, [sp, #4]
10000466:	f002 fb87 	bl	10002b78 <weak_raw_vprintf>
1000046a:	4804      	ldr	r0, [pc, #16]	@ (1000047c <panic+0x2c>)
1000046c:	f002 fd10 	bl	10002e90 <__wrap_puts>
10000470:	2001      	movs	r0, #1
10000472:	f002 fb99 	bl	10002ba8 <_exit>
10000476:	bf00      	nop
10000478:	100058b0 	.word	0x100058b0
1000047c:	100058c0 	.word	0x100058c0

10000480 <hw_claim_or_assert>:
10000480:	b570      	push	{r4, r5, r6, lr}
10000482:	4686      	mov	lr, r0
10000484:	f3ef 8510 	mrs	r5, PRIMASK
10000488:	b672      	cpsid	i
1000048a:	4c12      	ldr	r4, [pc, #72]	@ (100004d4 <hw_claim_or_assert+0x54>)
1000048c:	e8d4 6fcf 	ldaexb	r6, [r4]
10000490:	2001      	movs	r0, #1
10000492:	2e00      	cmp	r6, #0
10000494:	d1fa      	bne.n	1000048c <hw_claim_or_assert+0xc>
10000496:	e8c4 0f46 	strexb	r6, r0, [r4]
1000049a:	2e00      	cmp	r6, #0
1000049c:	d1f6      	bne.n	1000048c <hw_claim_or_assert+0xc>
1000049e:	f3bf 8f5f 	dmb	sy
100004a2:	f04f 0c01 	mov.w	ip, #1
100004a6:	08c8      	lsrs	r0, r1, #3
100004a8:	f001 0307 	and.w	r3, r1, #7
100004ac:	fa0c f303 	lsl.w	r3, ip, r3
100004b0:	f81e c000 	ldrb.w	ip, [lr, r0]
100004b4:	ea1c 0603 	ands.w	r6, ip, r3
100004b8:	d108      	bne.n	100004cc <hw_claim_or_assert+0x4c>
100004ba:	ea4c 0c03 	orr.w	ip, ip, r3
100004be:	f80e c000 	strb.w	ip, [lr, r0]
100004c2:	e8c4 6f8f 	stlb	r6, [r4]
100004c6:	f385 8810 	msr	PRIMASK, r5
100004ca:	bd70      	pop	{r4, r5, r6, pc}
100004cc:	4610      	mov	r0, r2
100004ce:	f7ff ffbf 	bl	10000450 <panic>
100004d2:	bf00      	nop
100004d4:	2000120b 	.word	0x2000120b

100004d8 <next_striped_spin_lock_num>:
100004d8:	4a04      	ldr	r2, [pc, #16]	@ (100004ec <next_striped_spin_lock_num+0x14>)
100004da:	7810      	ldrb	r0, [r2, #0]
100004dc:	1c43      	adds	r3, r0, #1
100004de:	b2db      	uxtb	r3, r3
100004e0:	2b18      	cmp	r3, #24
100004e2:	bf28      	it	cs
100004e4:	2310      	movcs	r3, #16
100004e6:	7013      	strb	r3, [r2, #0]
100004e8:	4770      	bx	lr
100004ea:	bf00      	nop
100004ec:	20000934 	.word	0x20000934

100004f0 <spinlock_set_extexclall>:
100004f0:	f04f 22e0 	mov.w	r2, #3758153728	@ 0xe000e000
100004f4:	6893      	ldr	r3, [r2, #8]
100004f6:	f043 5300 	orr.w	r3, r3, #536870912	@ 0x20000000
100004fa:	6093      	str	r3, [r2, #8]
100004fc:	4770      	bx	lr
100004fe:	bf00      	nop

10000500 <spin_locks_reset>:
10000500:	2100      	movs	r1, #0
10000502:	4b04      	ldr	r3, [pc, #16]	@ (10000514 <spin_locks_reset+0x14>)
10000504:	f103 0220 	add.w	r2, r3, #32
10000508:	e8c3 1f8f 	stlb	r1, [r3]
1000050c:	3301      	adds	r3, #1
1000050e:	4293      	cmp	r3, r2
10000510:	d1fa      	bne.n	10000508 <spin_locks_reset+0x8>
10000512:	4770      	bx	lr
10000514:	20001200 	.word	0x20001200

10000518 <runtime_init_per_core_irq_priorities>:
10000518:	f04f 23e0 	mov.w	r3, #3758153728	@ 0xe000e000
1000051c:	f04f 3280 	mov.w	r2, #2155905152	@ 0x80808080
10000520:	f8c3 2400 	str.w	r2, [r3, #1024]	@ 0x400
10000524:	f8c3 2404 	str.w	r2, [r3, #1028]	@ 0x404
10000528:	f8c3 2408 	str.w	r2, [r3, #1032]	@ 0x408
1000052c:	f8c3 240c 	str.w	r2, [r3, #1036]	@ 0x40c
10000530:	f8c3 2410 	str.w	r2, [r3, #1040]	@ 0x410
10000534:	f8c3 2414 	str.w	r2, [r3, #1044]	@ 0x414
10000538:	f8c3 2418 	str.w	r2, [r3, #1048]	@ 0x418
1000053c:	f8c3 241c 	str.w	r2, [r3, #1052]	@ 0x41c
10000540:	f8c3 2420 	str.w	r2, [r3, #1056]	@ 0x420
10000544:	f8c3 2424 	str.w	r2, [r3, #1060]	@ 0x424
10000548:	f8c3 2428 	str.w	r2, [r3, #1064]	@ 0x428
1000054c:	f8c3 242c 	str.w	r2, [r3, #1068]	@ 0x42c
10000550:	f8c3 2430 	str.w	r2, [r3, #1072]	@ 0x430
10000554:	4770      	bx	lr
10000556:	bf00      	nop

10000558 <irq_set_enabled>:
10000558:	2301      	movs	r3, #1
1000055a:	f000 021f 	and.w	r2, r0, #31
1000055e:	4093      	lsls	r3, r2
10000560:	0940      	lsrs	r0, r0, #5
10000562:	b141      	cbz	r1, 10000576 <irq_set_enabled+0x1e>
10000564:	0080      	lsls	r0, r0, #2
10000566:	f100 4060 	add.w	r0, r0, #3758096384	@ 0xe0000000
1000056a:	f500 4061 	add.w	r0, r0, #57600	@ 0xe100
1000056e:	f8c0 3180 	str.w	r3, [r0, #384]	@ 0x180
10000572:	6003      	str	r3, [r0, #0]
10000574:	4770      	bx	lr
10000576:	4a02      	ldr	r2, [pc, #8]	@ (10000580 <irq_set_enabled+0x28>)
10000578:	3020      	adds	r0, #32
1000057a:	f842 3020 	str.w	r3, [r2, r0, lsl #2]
1000057e:	4770      	bx	lr
10000580:	e000e100 	.word	0xe000e100

10000584 <irq_set_exclusive_handler>:
10000584:	b5f8      	push	{r3, r4, r5, r6, r7, lr}
10000586:	460d      	mov	r5, r1
10000588:	f3ef 8710 	mrs	r7, PRIMASK
1000058c:	b672      	cpsid	i
1000058e:	4e12      	ldr	r6, [pc, #72]	@ (100005d8 <irq_set_exclusive_handler+0x54>)
10000590:	e8d6 2fcf 	ldaexb	r2, [r6]
10000594:	2301      	movs	r3, #1
10000596:	2a00      	cmp	r2, #0
10000598:	d1fa      	bne.n	10000590 <irq_set_exclusive_handler+0xc>
1000059a:	e8c6 3f42 	strexb	r2, r3, [r6]
1000059e:	2a00      	cmp	r2, #0
100005a0:	d1f6      	bne.n	10000590 <irq_set_exclusive_handler+0xc>
100005a2:	f3bf 8f5f 	dmb	sy
100005a6:	4b0d      	ldr	r3, [pc, #52]	@ (100005dc <irq_set_exclusive_handler+0x58>)
100005a8:	f100 0410 	add.w	r4, r0, #16
100005ac:	689b      	ldr	r3, [r3, #8]
100005ae:	4a0c      	ldr	r2, [pc, #48]	@ (100005e0 <irq_set_exclusive_handler+0x5c>)
100005b0:	f853 3024 	ldr.w	r3, [r3, r4, lsl #2]
100005b4:	4293      	cmp	r3, r2
100005b6:	d003      	beq.n	100005c0 <irq_set_exclusive_handler+0x3c>
100005b8:	4299      	cmp	r1, r3
100005ba:	d001      	beq.n	100005c0 <irq_set_exclusive_handler+0x3c>
100005bc:	f000 fd02 	bl	10000fc4 <hard_assertion_failure>
100005c0:	4b06      	ldr	r3, [pc, #24]	@ (100005dc <irq_set_exclusive_handler+0x58>)
100005c2:	689b      	ldr	r3, [r3, #8]
100005c4:	f843 5024 	str.w	r5, [r3, r4, lsl #2]
100005c8:	f3bf 8f5f 	dmb	sy
100005cc:	2300      	movs	r3, #0
100005ce:	e8c6 3f8f 	stlb	r3, [r6]
100005d2:	f387 8810 	msr	PRIMASK, r7
100005d6:	bdf8      	pop	{r3, r4, r5, r6, r7, pc}
100005d8:	20001209 	.word	0x20001209
100005dc:	e000ed00 	.word	0xe000ed00
100005e0:	1000011d 	.word	0x1000011d

100005e4 <lock_init>:
100005e4:	4b01      	ldr	r3, [pc, #4]	@ (100005ec <lock_init+0x8>)
100005e6:	440b      	add	r3, r1
100005e8:	6003      	str	r3, [r0, #0]
100005ea:	4770      	bx	lr
100005ec:	20001200 	.word	0x20001200

100005f0 <runtime_init_mutex>:
100005f0:	b570      	push	{r4, r5, r6, lr}
100005f2:	4c10      	ldr	r4, [pc, #64]	@ (10000634 <runtime_init_mutex+0x44>)
100005f4:	4d10      	ldr	r5, [pc, #64]	@ (10000638 <runtime_init_mutex+0x48>)
100005f6:	42ac      	cmp	r4, r5
100005f8:	d20e      	bcs.n	10000618 <runtime_init_mutex+0x28>
100005fa:	26ff      	movs	r6, #255	@ 0xff
100005fc:	6823      	ldr	r3, [r4, #0]
100005fe:	b163      	cbz	r3, 1000061a <runtime_init_mutex+0x2a>
10000600:	f7ff ff6a 	bl	100004d8 <next_striped_spin_lock_num>
10000604:	4601      	mov	r1, r0
10000606:	4620      	mov	r0, r4
10000608:	f7ff ffec 	bl	100005e4 <lock_init>
1000060c:	80a6      	strh	r6, [r4, #4]
1000060e:	f3bf 8f5f 	dmb	sy
10000612:	3408      	adds	r4, #8
10000614:	42ac      	cmp	r4, r5
10000616:	d3f1      	bcc.n	100005fc <runtime_init_mutex+0xc>
10000618:	bd70      	pop	{r4, r5, r6, pc}
1000061a:	f7ff ff5d 	bl	100004d8 <next_striped_spin_lock_num>
1000061e:	4601      	mov	r1, r0
10000620:	4620      	mov	r0, r4
10000622:	f7ff ffdf 	bl	100005e4 <lock_init>
10000626:	7126      	strb	r6, [r4, #4]
10000628:	f3bf 8f5f 	dmb	sy
1000062c:	3408      	adds	r4, #8
1000062e:	42ac      	cmp	r4, r5
10000630:	d3e4      	bcc.n	100005fc <runtime_init_mutex+0xc>
10000632:	bd70      	pop	{r4, r5, r6, pc}
10000634:	20000eb8 	.word	0x20000eb8
10000638:	20000ec0 	.word	0x20000ec0

1000063c <sleep_until_callback>:
1000063c:	4b0d      	ldr	r3, [pc, #52]	@ (10000674 <sleep_until_callback+0x38>)
1000063e:	681a      	ldr	r2, [r3, #0]
10000640:	f3ef 8110 	mrs	r1, PRIMASK
10000644:	b672      	cpsid	i
10000646:	e8d2 cfcf 	ldaexb	ip, [r2]
1000064a:	2001      	movs	r0, #1
1000064c:	f1bc 0f00 	cmp.w	ip, #0
10000650:	d1f9      	bne.n	10000646 <sleep_until_callback+0xa>
10000652:	e8c2 0f4c 	strexb	ip, r0, [r2]
10000656:	f1bc 0f00 	cmp.w	ip, #0
1000065a:	d1f4      	bne.n	10000646 <sleep_until_callback+0xa>
1000065c:	f3bf 8f5f 	dmb	sy
10000660:	2200      	movs	r2, #0
10000662:	681b      	ldr	r3, [r3, #0]
10000664:	e8c3 2f8f 	stlb	r2, [r3]
10000668:	f381 8810 	msr	PRIMASK, r1
1000066c:	bf40      	sev
1000066e:	2000      	movs	r0, #0
10000670:	2100      	movs	r1, #0
10000672:	4770      	bx	lr
10000674:	20001334 	.word	0x20001334

10000678 <alarm_pool_irq_handler>:
10000678:	e92d 4ff0 	stmdb	sp!, {r4, r5, r6, r7, r8, r9, sl, fp, lr}
1000067c:	ed2d 8b02 	vpush	{d8}
10000680:	b085      	sub	sp, #20
10000682:	f3ef 8305 	mrs	r3, IPSR
10000686:	b2db      	uxtb	r3, r3
10000688:	3b10      	subs	r3, #16
1000068a:	089a      	lsrs	r2, r3, #2
1000068c:	bf18      	it	ne
1000068e:	2201      	movne	r2, #1
10000690:	f04f 0101 	mov.w	r1, #1
10000694:	f003 0b03 	and.w	fp, r3, #3
10000698:	bf18      	it	ne
1000069a:	4daf      	ldrne	r5, [pc, #700]	@ (10000958 <alarm_pool_irq_handler+0x2e0>)
1000069c:	4baf      	ldr	r3, [pc, #700]	@ (1000095c <alarm_pool_irq_handler+0x2e4>)
1000069e:	bf08      	it	eq
100006a0:	4daf      	ldreq	r5, [pc, #700]	@ (10000960 <alarm_pool_irq_handler+0x2e8>)
100006a2:	eb0b 0282 	add.w	r2, fp, r2, lsl #2
100006a6:	f853 6022 	ldr.w	r6, [r3, r2, lsl #2]
100006aa:	fa01 f20b 	lsl.w	r2, r1, fp
100006ae:	f505 5341 	add.w	r3, r5, #12352	@ 0x3040
100006b2:	ed9f 8ba7 	vldr	d8, [pc, #668]	@ 10000950 <alarm_pool_irq_handler+0x2d8>
100006b6:	9201      	str	r2, [sp, #4]
100006b8:	605a      	str	r2, [r3, #4]
100006ba:	e02f      	b.n	1000071c <alarm_pool_irq_handler+0xa4>
100006bc:	88b3      	ldrh	r3, [r6, #4]
100006be:	041c      	lsls	r4, r3, #16
100006c0:	f140 8093 	bpl.w	100007ea <alarm_pool_irq_handler+0x172>
100006c4:	79b3      	ldrb	r3, [r6, #6]
100006c6:	2b00      	cmp	r3, #0
100006c8:	f040 80dd 	bne.w	10000886 <alarm_pool_irq_handler+0x20e>
100006cc:	f9b6 2008 	ldrsh.w	r2, [r6, #8]
100006d0:	2a00      	cmp	r2, #0
100006d2:	f2c0 811e 	blt.w	10000912 <alarm_pool_irq_handler+0x29a>
100006d6:	6973      	ldr	r3, [r6, #20]
100006d8:	eb02 0242 	add.w	r2, r2, r2, lsl #1
100006dc:	eb03 03c2 	add.w	r3, r3, r2, lsl #3
100006e0:	e9d3 4702 	ldrd	r4, r7, [r3, #8]
100006e4:	f1b7 3fff 	cmp.w	r7, #4294967295
100006e8:	bf08      	it	eq
100006ea:	f1b4 3fff 	cmpeq.w	r4, #4294967295
100006ee:	d00e      	beq.n	1000070e <alarm_pool_irq_handler+0x96>
100006f0:	eb05 018b 	add.w	r1, r5, fp, lsl #2
100006f4:	6aab      	ldr	r3, [r5, #40]	@ 0x28
100006f6:	690a      	ldr	r2, [r1, #16]
100006f8:	1ad2      	subs	r2, r2, r3
100006fa:	1ae3      	subs	r3, r4, r3
100006fc:	4293      	cmp	r3, r2
100006fe:	d305      	bcc.n	1000070c <alarm_pool_irq_handler+0x94>
10000700:	2301      	movs	r3, #1
10000702:	6a2a      	ldr	r2, [r5, #32]
10000704:	fa03 f30b 	lsl.w	r3, r3, fp
10000708:	4213      	tst	r3, r2
1000070a:	d100      	bne.n	1000070e <alarm_pool_irq_handler+0x96>
1000070c:	610c      	str	r4, [r1, #16]
1000070e:	4628      	mov	r0, r5
10000710:	f000 fb36 	bl	10000d80 <timer_time_us_64>
10000714:	42a0      	cmp	r0, r4
10000716:	41b9      	sbcs	r1, r7
10000718:	f2c0 80fb 	blt.w	10000912 <alarm_pool_irq_handler+0x29a>
1000071c:	f9b6 3008 	ldrsh.w	r3, [r6, #8]
10000720:	9a01      	ldr	r2, [sp, #4]
10000722:	2b00      	cmp	r3, #0
10000724:	9300      	str	r3, [sp, #0]
10000726:	63ea      	str	r2, [r5, #60]	@ 0x3c
10000728:	dbc8      	blt.n	100006bc <alarm_pool_irq_handler+0x44>
1000072a:	f8d6 8014 	ldr.w	r8, [r6, #20]
1000072e:	eb03 0943 	add.w	r9, r3, r3, lsl #1
10000732:	4628      	mov	r0, r5
10000734:	eb08 07c9 	add.w	r7, r8, r9, lsl #3
10000738:	e9d7 4a02 	ldrd	r4, sl, [r7, #8]
1000073c:	f000 fb20 	bl	10000d80 <timer_time_us_64>
10000740:	42a0      	cmp	r0, r4
10000742:	eb71 010a 	sbcs.w	r1, r1, sl
10000746:	dbb9      	blt.n	100006bc <alarm_pool_irq_handler+0x44>
10000748:	f1ba 0f00 	cmp.w	sl, #0
1000074c:	f2c0 80c3 	blt.w	100008d6 <alarm_pool_irq_handler+0x25e>
10000750:	e9d7 3104 	ldrd	r3, r1, [r7, #16]
10000754:	4a83      	ldr	r2, [pc, #524]	@ (10000964 <alarm_pool_irq_handler+0x2ec>)
10000756:	4293      	cmp	r3, r2
10000758:	f000 80ed 	beq.w	10000936 <alarm_pool_irq_handler+0x2be>
1000075c:	887a      	ldrh	r2, [r7, #2]
1000075e:	f9b6 0008 	ldrsh.w	r0, [r6, #8]
10000762:	b292      	uxth	r2, r2
10000764:	ea42 4000 	orr.w	r0, r2, r0, lsl #16
10000768:	4798      	blx	r3
1000076a:	4602      	mov	r2, r0
1000076c:	460b      	mov	r3, r1
1000076e:	ea52 0103 	orrs.w	r1, r2, r3
10000772:	f000 80b0 	beq.w	100008d6 <alarm_pool_irq_handler+0x25e>
10000776:	2b00      	cmp	r3, #0
10000778:	f280 80d1 	bge.w	1000091e <alarm_pool_irq_handler+0x2a6>
1000077c:	ebb4 0e02 	subs.w	lr, r4, r2
10000780:	eb6a 0a03 	sbc.w	sl, sl, r3
10000784:	f938 3039 	ldrsh.w	r3, [r8, r9, lsl #3]
10000788:	e9c7 ea02 	strd	lr, sl, [r7, #8]
1000078c:	2b00      	cmp	r3, #0
1000078e:	db95      	blt.n	100006bc <alarm_pool_irq_handler+0x44>
10000790:	6971      	ldr	r1, [r6, #20]
10000792:	eb03 0243 	add.w	r2, r3, r3, lsl #1
10000796:	eb01 02c2 	add.w	r2, r1, r2, lsl #3
1000079a:	e9d2 7002 	ldrd	r7, r0, [r2, #8]
1000079e:	45be      	cmp	lr, r7
100007a0:	eb7a 0c00 	sbcs.w	ip, sl, r0
100007a4:	ea4f 0243 	mov.w	r2, r3, lsl #1
100007a8:	db88      	blt.n	100006bc <alarm_pool_irq_handler+0x44>
100007aa:	46b4      	mov	ip, r6
100007ac:	f82c 3f08 	strh.w	r3, [ip, #8]!
100007b0:	e006      	b.n	100007c0 <alarm_pool_irq_handler+0x148>
100007b2:	eb03 0043 	add.w	r0, r3, r3, lsl #1
100007b6:	eb01 00c0 	add.w	r0, r1, r0, lsl #3
100007ba:	005a      	lsls	r2, r3, #1
100007bc:	e9d0 7002 	ldrd	r7, r0, [r0, #8]
100007c0:	45be      	cmp	lr, r7
100007c2:	441a      	add	r2, r3
100007c4:	eb7a 0000 	sbcs.w	r0, sl, r0
100007c8:	eb01 04c2 	add.w	r4, r1, r2, lsl #3
100007cc:	db04      	blt.n	100007d8 <alarm_pool_irq_handler+0x160>
100007ce:	f931 3032 	ldrsh.w	r3, [r1, r2, lsl #3]
100007d2:	46a4      	mov	ip, r4
100007d4:	2b00      	cmp	r3, #0
100007d6:	daec      	bge.n	100007b2 <alarm_pool_irq_handler+0x13a>
100007d8:	f828 3039 	strh.w	r3, [r8, r9, lsl #3]
100007dc:	9b00      	ldr	r3, [sp, #0]
100007de:	f8ac 3000 	strh.w	r3, [ip]
100007e2:	88b3      	ldrh	r3, [r6, #4]
100007e4:	041c      	lsls	r4, r3, #16
100007e6:	f53f af6d 	bmi.w	100006c4 <alarm_pool_irq_handler+0x4c>
100007ea:	6933      	ldr	r3, [r6, #16]
100007ec:	f3ef 8210 	mrs	r2, PRIMASK
100007f0:	b672      	cpsid	i
100007f2:	e8d3 0fcf 	ldaexb	r0, [r3]
100007f6:	2101      	movs	r1, #1
100007f8:	2800      	cmp	r0, #0
100007fa:	d1fa      	bne.n	100007f2 <alarm_pool_irq_handler+0x17a>
100007fc:	e8c3 1f40 	strexb	r0, r1, [r3]
10000800:	2800      	cmp	r0, #0
10000802:	d1f6      	bne.n	100007f2 <alarm_pool_irq_handler+0x17a>
10000804:	f3bf 8f5f 	dmb	sy
10000808:	f64f 74ff 	movw	r4, #65535	@ 0xffff
1000080c:	88b0      	ldrh	r0, [r6, #4]
1000080e:	2300      	movs	r3, #0
10000810:	6931      	ldr	r1, [r6, #16]
10000812:	b200      	sxth	r0, r0
10000814:	80b4      	strh	r4, [r6, #4]
10000816:	e8c1 3f8f 	stlb	r3, [r1]
1000081a:	f382 8810 	msr	PRIMASK, r2
1000081e:	4298      	cmp	r0, r3
10000820:	f6ff af50 	blt.w	100006c4 <alarm_pool_irq_handler+0x4c>
10000824:	4607      	mov	r7, r0
10000826:	46a9      	mov	r9, r5
10000828:	6974      	ldr	r4, [r6, #20]
1000082a:	f106 0808 	add.w	r8, r6, #8
1000082e:	eb07 0e47 	add.w	lr, r7, r7, lsl #1
10000832:	eb04 03ce 	add.w	r3, r4, lr, lsl #3
10000836:	e9d3 5002 	ldrd	r5, r0, [r3, #8]
1000083a:	f9b6 3008 	ldrsh.w	r3, [r6, #8]
1000083e:	46c4      	mov	ip, r8
10000840:	2b00      	cmp	r3, #0
10000842:	db13      	blt.n	1000086c <alarm_pool_irq_handler+0x1f4>
10000844:	46b2      	mov	sl, r6
10000846:	9700      	str	r7, [sp, #0]
10000848:	e004      	b.n	10000854 <alarm_pool_irq_handler+0x1dc>
1000084a:	f934 3036 	ldrsh.w	r3, [r4, r6, lsl #3]
1000084e:	4694      	mov	ip, r2
10000850:	2b00      	cmp	r3, #0
10000852:	db09      	blt.n	10000868 <alarm_pool_irq_handler+0x1f0>
10000854:	eb03 0643 	add.w	r6, r3, r3, lsl #1
10000858:	eb04 02c6 	add.w	r2, r4, r6, lsl #3
1000085c:	e9d2 7102 	ldrd	r7, r1, [r2, #8]
10000860:	42bd      	cmp	r5, r7
10000862:	eb70 0101 	sbcs.w	r1, r0, r1
10000866:	daf0      	bge.n	1000084a <alarm_pool_irq_handler+0x1d2>
10000868:	4656      	mov	r6, sl
1000086a:	9f00      	ldr	r7, [sp, #0]
1000086c:	f8ac 7000 	strh.w	r7, [ip]
10000870:	f934 703e 	ldrsh.w	r7, [r4, lr, lsl #3]
10000874:	f824 303e 	strh.w	r3, [r4, lr, lsl #3]
10000878:	2f00      	cmp	r7, #0
1000087a:	dad8      	bge.n	1000082e <alarm_pool_irq_handler+0x1b6>
1000087c:	79b3      	ldrb	r3, [r6, #6]
1000087e:	464d      	mov	r5, r9
10000880:	2b00      	cmp	r3, #0
10000882:	f43f af23 	beq.w	100006cc <alarm_pool_irq_handler+0x54>
10000886:	2300      	movs	r3, #0
10000888:	71b3      	strb	r3, [r6, #6]
1000088a:	f9b6 3008 	ldrsh.w	r3, [r6, #8]
1000088e:	f106 0808 	add.w	r8, r6, #8
10000892:	1c58      	adds	r0, r3, #1
10000894:	d03d      	beq.n	10000912 <alarm_pool_irq_handler+0x29a>
10000896:	461a      	mov	r2, r3
10000898:	6977      	ldr	r7, [r6, #20]
1000089a:	e003      	b.n	100008a4 <alarm_pool_irq_handler+0x22c>
1000089c:	4680      	mov	r8, r0
1000089e:	1c59      	adds	r1, r3, #1
100008a0:	f43f af16 	beq.w	100006d0 <alarm_pool_irq_handler+0x58>
100008a4:	eb03 0143 	add.w	r1, r3, r3, lsl #1
100008a8:	eb07 00c1 	add.w	r0, r7, r1, lsl #3
100008ac:	f8b0 c002 	ldrh.w	ip, [r0, #2]
100008b0:	461c      	mov	r4, r3
100008b2:	f41c 4f00 	tst.w	ip, #32768	@ 0x8000
100008b6:	469e      	mov	lr, r3
100008b8:	f937 3031 	ldrsh.w	r3, [r7, r1, lsl #3]
100008bc:	d0ee      	beq.n	1000089c <alarm_pool_irq_handler+0x224>
100008be:	4294      	cmp	r4, r2
100008c0:	ed80 8b02 	vstr	d8, [r0, #8]
100008c4:	d005      	beq.n	100008d2 <alarm_pool_irq_handler+0x25a>
100008c6:	f8a8 3000 	strh.w	r3, [r8]
100008ca:	8932      	ldrh	r2, [r6, #8]
100008cc:	f827 2031 	strh.w	r2, [r7, r1, lsl #3]
100008d0:	8134      	strh	r4, [r6, #8]
100008d2:	4672      	mov	r2, lr
100008d4:	e7e3      	b.n	1000089e <alarm_pool_irq_handler+0x226>
100008d6:	f838 3039 	ldrh.w	r3, [r8, r9, lsl #3]
100008da:	8133      	strh	r3, [r6, #8]
100008dc:	6933      	ldr	r3, [r6, #16]
100008de:	f3ef 8210 	mrs	r2, PRIMASK
100008e2:	b672      	cpsid	i
100008e4:	e8d3 0fcf 	ldaexb	r0, [r3]
100008e8:	2101      	movs	r1, #1
100008ea:	2800      	cmp	r0, #0
100008ec:	d1fa      	bne.n	100008e4 <alarm_pool_irq_handler+0x26c>
100008ee:	e8c3 1f40 	strexb	r0, r1, [r3]
100008f2:	2800      	cmp	r0, #0
100008f4:	d1f6      	bne.n	100008e4 <alarm_pool_irq_handler+0x26c>
100008f6:	f3bf 8f5f 	dmb	sy
100008fa:	8873      	ldrh	r3, [r6, #2]
100008fc:	6931      	ldr	r1, [r6, #16]
100008fe:	f828 3039 	strh.w	r3, [r8, r9, lsl #3]
10000902:	9b00      	ldr	r3, [sp, #0]
10000904:	8073      	strh	r3, [r6, #2]
10000906:	2300      	movs	r3, #0
10000908:	e8c1 3f8f 	stlb	r3, [r1]
1000090c:	f382 8810 	msr	PRIMASK, r2
10000910:	e6d4      	b.n	100006bc <alarm_pool_irq_handler+0x44>
10000912:	bf40      	sev
10000914:	b005      	add	sp, #20
10000916:	ecbd 8b02 	vpop	{d8}
1000091a:	e8bd 8ff0 	ldmia.w	sp!, {r4, r5, r6, r7, r8, r9, sl, fp, pc}
1000091e:	4628      	mov	r0, r5
10000920:	e9cd 2302 	strd	r2, r3, [sp, #8]
10000924:	f000 fa2c 	bl	10000d80 <timer_time_us_64>
10000928:	9a02      	ldr	r2, [sp, #8]
1000092a:	9b03      	ldr	r3, [sp, #12]
1000092c:	eb10 0e02 	adds.w	lr, r0, r2
10000930:	eb43 0a01 	adc.w	sl, r3, r1
10000934:	e726      	b.n	10000784 <alarm_pool_irq_handler+0x10c>
10000936:	4608      	mov	r0, r1
10000938:	690b      	ldr	r3, [r1, #16]
1000093a:	9102      	str	r1, [sp, #8]
1000093c:	4798      	blx	r3
1000093e:	2800      	cmp	r0, #0
10000940:	d0c9      	beq.n	100008d6 <alarm_pool_irq_handler+0x25e>
10000942:	9902      	ldr	r1, [sp, #8]
10000944:	e9d1 2300 	ldrd	r2, r3, [r1]
10000948:	e711      	b.n	1000076e <alarm_pool_irq_handler+0xf6>
1000094a:	bf00      	nop
1000094c:	f3af 8000 	nop.w
10000950:	ffffffff 	.word	0xffffffff
10000954:	ffffffff 	.word	0xffffffff
10000958:	400b8000 	.word	0x400b8000
1000095c:	2000127c 	.word	0x2000127c
10000960:	400b0000 	.word	0x400b0000
10000964:	10000679 	.word	0x10000679

10000968 <runtime_init_default_alarm_pool>:
10000968:	e92d 4ff8 	stmdb	sp!, {r3, r4, r5, r6, r7, r8, r9, sl, fp, lr}
1000096c:	4c36      	ldr	r4, [pc, #216]	@ (10000a48 <runtime_init_default_alarm_pool+0xe0>)
1000096e:	6925      	ldr	r5, [r4, #16]
10000970:	b12d      	cbz	r5, 1000097e <runtime_init_default_alarm_pool+0x16>
10000972:	e8bd 4ff8 	ldmia.w	sp!, {r3, r4, r5, r6, r7, r8, r9, sl, fp, lr}
10000976:	210a      	movs	r1, #10
10000978:	4834      	ldr	r0, [pc, #208]	@ (10000a4c <runtime_init_default_alarm_pool+0xe4>)
1000097a:	f7ff be33 	b.w	100005e4 <lock_init>
1000097e:	f8df 80e4 	ldr.w	r8, [pc, #228]	@ 10000a64 <runtime_init_default_alarm_pool+0xfc>
10000982:	2103      	movs	r1, #3
10000984:	4640      	mov	r0, r8
10000986:	f000 f9e9 	bl	10000d5c <timer_hardware_alarm_claim>
1000098a:	2603      	movs	r6, #3
1000098c:	f8c4 800c 	str.w	r8, [r4, #12]
10000990:	f7ff fda2 	bl	100004d8 <next_striped_spin_lock_num>
10000994:	f04f 4c50 	mov.w	ip, #3489660928	@ 0xd0000000
10000998:	4b2d      	ldr	r3, [pc, #180]	@ (10000a50 <runtime_init_default_alarm_pool+0xe8>)
1000099a:	7026      	strb	r6, [r4, #0]
1000099c:	4403      	add	r3, r0
1000099e:	6123      	str	r3, [r4, #16]
100009a0:	f8dc 3000 	ldr.w	r3, [ip]
100009a4:	210f      	movs	r1, #15
100009a6:	7063      	strb	r3, [r4, #1]
100009a8:	6963      	ldr	r3, [r4, #20]
100009aa:	8061      	strh	r1, [r4, #2]
100009ac:	831d      	strh	r5, [r3, #24]
100009ae:	f04f 0504 	mov.w	r5, #4
100009b2:	f8a3 5078 	strh.w	r5, [r3, #120]	@ 0x78
100009b6:	f04f 0505 	mov.w	r5, #5
100009ba:	f8a3 5090 	strh.w	r5, [r3, #144]	@ 0x90
100009be:	f04f 0506 	mov.w	r5, #6
100009c2:	f8a3 50a8 	strh.w	r5, [r3, #168]	@ 0xa8
100009c6:	f04f 0507 	mov.w	r5, #7
100009ca:	210e      	movs	r1, #14
100009cc:	f64f 72ff 	movw	r2, #65535	@ 0xffff
100009d0:	2708      	movs	r7, #8
100009d2:	f04f 0e0a 	mov.w	lr, #10
100009d6:	f8a3 50c0 	strh.w	r5, [r3, #192]	@ 0xc0
100009da:	f04f 0901 	mov.w	r9, #1
100009de:	f04f 0c0c 	mov.w	ip, #12
100009e2:	f04f 0b02 	mov.w	fp, #2
100009e6:	f04f 0a09 	mov.w	sl, #9
100009ea:	200d      	movs	r0, #13
100009ec:	f04f 050b 	mov.w	r5, #11
100009f0:	f8a3 1168 	strh.w	r1, [r3, #360]	@ 0x168
100009f4:	4917      	ldr	r1, [pc, #92]	@ (10000a54 <runtime_init_default_alarm_pool+0xec>)
100009f6:	80a2      	strh	r2, [r4, #4]
100009f8:	f8a3 e108 	strh.w	lr, [r3, #264]	@ 0x108
100009fc:	60a1      	str	r1, [r4, #8]
100009fe:	f8a3 b048 	strh.w	fp, [r3, #72]	@ 0x48
10000a02:	f8a3 a0f0 	strh.w	sl, [r3, #240]	@ 0xf0
10000a06:	f8a3 5120 	strh.w	r5, [r3, #288]	@ 0x120
10000a0a:	f8a3 c138 	strh.w	ip, [r3, #312]	@ 0x138
10000a0e:	f8a3 0150 	strh.w	r0, [r3, #336]	@ 0x150
10000a12:	f8a3 9030 	strh.w	r9, [r3, #48]	@ 0x30
10000a16:	f8a3 6060 	strh.w	r6, [r3, #96]	@ 0x60
10000a1a:	f8a3 70d8 	strh.w	r7, [r3, #216]	@ 0xd8
10000a1e:	801a      	strh	r2, [r3, #0]
10000a20:	4b0d      	ldr	r3, [pc, #52]	@ (10000a58 <runtime_init_default_alarm_pool+0xf0>)
10000a22:	4630      	mov	r0, r6
10000a24:	f8c8 7020 	str.w	r7, [r8, #32]
10000a28:	490c      	ldr	r1, [pc, #48]	@ (10000a5c <runtime_init_default_alarm_pool+0xf4>)
10000a2a:	60dc      	str	r4, [r3, #12]
10000a2c:	f7ff fdaa 	bl	10000584 <irq_set_exclusive_handler>
10000a30:	4649      	mov	r1, r9
10000a32:	4630      	mov	r0, r6
10000a34:	f7ff fd90 	bl	10000558 <irq_set_enabled>
10000a38:	4b09      	ldr	r3, [pc, #36]	@ (10000a60 <runtime_init_default_alarm_pool+0xf8>)
10000a3a:	210a      	movs	r1, #10
10000a3c:	641f      	str	r7, [r3, #64]	@ 0x40
10000a3e:	4803      	ldr	r0, [pc, #12]	@ (10000a4c <runtime_init_default_alarm_pool+0xe4>)
10000a40:	e8bd 4ff8 	ldmia.w	sp!, {r3, r4, r5, r6, r7, r8, r9, sl, fp, lr}
10000a44:	f7ff bdce 	b.w	100005e4 <lock_init>
10000a48:	20000938 	.word	0x20000938
10000a4c:	20001334 	.word	0x20001334
10000a50:	20001200 	.word	0x20001200
10000a54:	0010ffff 	.word	0x0010ffff
10000a58:	2000127c 	.word	0x2000127c
10000a5c:	10000679 	.word	0x10000679
10000a60:	400b2000 	.word	0x400b2000
10000a64:	400b0000 	.word	0x400b0000

10000a68 <alarm_pool_add_alarm_at_force_in_context>:
10000a68:	4601      	mov	r1, r0
10000a6a:	b5f0      	push	{r4, r5, r6, r7, lr}
10000a6c:	6900      	ldr	r0, [r0, #16]
10000a6e:	f3ef 8710 	mrs	r7, PRIMASK
10000a72:	b672      	cpsid	i
10000a74:	e8d0 5fcf 	ldaexb	r5, [r0]
10000a78:	2401      	movs	r4, #1
10000a7a:	2d00      	cmp	r5, #0
10000a7c:	d1fa      	bne.n	10000a74 <alarm_pool_add_alarm_at_force_in_context+0xc>
10000a7e:	e8c0 4f45 	strexb	r5, r4, [r0]
10000a82:	2d00      	cmp	r5, #0
10000a84:	d1f6      	bne.n	10000a74 <alarm_pool_add_alarm_at_force_in_context+0xc>
10000a86:	f3bf 8f5f 	dmb	sy
10000a8a:	f9b1 e002 	ldrsh.w	lr, [r1, #2]
10000a8e:	694c      	ldr	r4, [r1, #20]
10000a90:	eb0e 0c4e 	add.w	ip, lr, lr, lsl #1
10000a94:	f1be 0f00 	cmp.w	lr, #0
10000a98:	ea4f 05cc 	mov.w	r5, ip, lsl #3
10000a9c:	6908      	ldr	r0, [r1, #16]
10000a9e:	eb04 0ccc 	add.w	ip, r4, ip, lsl #3
10000aa2:	db3c      	blt.n	10000b1e <alarm_pool_add_alarm_at_force_in_context+0xb6>
10000aa4:	5b66      	ldrh	r6, [r4, r5]
10000aa6:	804e      	strh	r6, [r1, #2]
10000aa8:	2600      	movs	r6, #0
10000aaa:	e8c0 6f8f 	stlb	r6, [r0]
10000aae:	f387 8810 	msr	PRIMASK, r7
10000ab2:	f8bc 0002 	ldrh.w	r0, [ip, #2]
10000ab6:	e9cc 2302 	strd	r2, r3, [ip, #8]
10000aba:	3001      	adds	r0, #1
10000abc:	f3c0 000e 	ubfx	r0, r0, #0, #15
10000ac0:	2801      	cmp	r0, #1
10000ac2:	bf38      	it	cc
10000ac4:	2001      	movcc	r0, #1
10000ac6:	9b05      	ldr	r3, [sp, #20]
10000ac8:	f8ac 0002 	strh.w	r0, [ip, #2]
10000acc:	f8cc 3010 	str.w	r3, [ip, #16]
10000ad0:	9b06      	ldr	r3, [sp, #24]
10000ad2:	ea40 400e 	orr.w	r0, r0, lr, lsl #16
10000ad6:	f8cc 3014 	str.w	r3, [ip, #20]
10000ada:	690b      	ldr	r3, [r1, #16]
10000adc:	f3ef 8210 	mrs	r2, PRIMASK
10000ae0:	b672      	cpsid	i
10000ae2:	e8d3 cfcf 	ldaexb	ip, [r3]
10000ae6:	2701      	movs	r7, #1
10000ae8:	f1bc 0f00 	cmp.w	ip, #0
10000aec:	d1f9      	bne.n	10000ae2 <alarm_pool_add_alarm_at_force_in_context+0x7a>
10000aee:	e8c3 7f4c 	strexb	ip, r7, [r3]
10000af2:	f1bc 0f00 	cmp.w	ip, #0
10000af6:	d1f4      	bne.n	10000ae2 <alarm_pool_add_alarm_at_force_in_context+0x7a>
10000af8:	f3bf 8f5f 	dmb	sy
10000afc:	888b      	ldrh	r3, [r1, #4]
10000afe:	5363      	strh	r3, [r4, r5]
10000b00:	f8a1 e004 	strh.w	lr, [r1, #4]
10000b04:	690b      	ldr	r3, [r1, #16]
10000b06:	e8c3 6f8f 	stlb	r6, [r3]
10000b0a:	f382 8810 	msr	PRIMASK, r2
10000b0e:	2201      	movs	r2, #1
10000b10:	68cb      	ldr	r3, [r1, #12]
10000b12:	7809      	ldrb	r1, [r1, #0]
10000b14:	f503 5301 	add.w	r3, r3, #8256	@ 0x2040
10000b18:	408a      	lsls	r2, r1
10000b1a:	605a      	str	r2, [r3, #4]
10000b1c:	bdf0      	pop	{r4, r5, r6, r7, pc}
10000b1e:	2300      	movs	r3, #0
10000b20:	e8c0 3f8f 	stlb	r3, [r0]
10000b24:	f387 8810 	msr	PRIMASK, r7
10000b28:	f04f 30ff 	mov.w	r0, #4294967295
10000b2c:	bdf0      	pop	{r4, r5, r6, r7, pc}
10000b2e:	bf00      	nop

10000b30 <alarm_pool_cancel_alarm>:
10000b30:	4603      	mov	r3, r0
10000b32:	8940      	ldrh	r0, [r0, #10]
10000b34:	ebb0 4f21 	cmp.w	r0, r1, asr #16
10000b38:	dd37      	ble.n	10000baa <alarm_pool_cancel_alarm+0x7a>
10000b3a:	6958      	ldr	r0, [r3, #20]
10000b3c:	140a      	asrs	r2, r1, #16
10000b3e:	eb02 0242 	add.w	r2, r2, r2, lsl #1
10000b42:	b510      	push	{r4, lr}
10000b44:	eb00 00c2 	add.w	r0, r0, r2, lsl #3
10000b48:	691c      	ldr	r4, [r3, #16]
10000b4a:	f3ef 8c10 	mrs	ip, PRIMASK
10000b4e:	b672      	cpsid	i
10000b50:	e8d4 efcf 	ldaexb	lr, [r4]
10000b54:	2201      	movs	r2, #1
10000b56:	f1be 0f00 	cmp.w	lr, #0
10000b5a:	d1f9      	bne.n	10000b50 <alarm_pool_cancel_alarm+0x20>
10000b5c:	e8c4 2f4e 	strexb	lr, r2, [r4]
10000b60:	f1be 0f00 	cmp.w	lr, #0
10000b64:	d1f4      	bne.n	10000b50 <alarm_pool_cancel_alarm+0x20>
10000b66:	f3bf 8f5f 	dmb	sy
10000b6a:	8842      	ldrh	r2, [r0, #2]
10000b6c:	b289      	uxth	r1, r1
10000b6e:	b292      	uxth	r2, r2
10000b70:	428a      	cmp	r2, r1
10000b72:	d007      	beq.n	10000b84 <alarm_pool_cancel_alarm+0x54>
10000b74:	2200      	movs	r2, #0
10000b76:	691b      	ldr	r3, [r3, #16]
10000b78:	e8c3 2f8f 	stlb	r2, [r3]
10000b7c:	f38c 8810 	msr	PRIMASK, ip
10000b80:	2000      	movs	r0, #0
10000b82:	bd10      	pop	{r4, pc}
10000b84:	f442 4200 	orr.w	r2, r2, #32768	@ 0x8000
10000b88:	8042      	strh	r2, [r0, #2]
10000b8a:	2101      	movs	r1, #1
10000b8c:	2200      	movs	r2, #0
10000b8e:	6918      	ldr	r0, [r3, #16]
10000b90:	7199      	strb	r1, [r3, #6]
10000b92:	e8c0 2f8f 	stlb	r2, [r0]
10000b96:	f38c 8810 	msr	PRIMASK, ip
10000b9a:	781c      	ldrb	r4, [r3, #0]
10000b9c:	68da      	ldr	r2, [r3, #12]
10000b9e:	4608      	mov	r0, r1
10000ba0:	f502 5301 	add.w	r3, r2, #8256	@ 0x2040
10000ba4:	40a1      	lsls	r1, r4
10000ba6:	6059      	str	r1, [r3, #4]
10000ba8:	bd10      	pop	{r4, pc}
10000baa:	2000      	movs	r0, #0
10000bac:	4770      	bx	lr
10000bae:	bf00      	nop

10000bb0 <sleep_us>:
10000bb0:	e92d 41f0 	stmdb	sp!, {r4, r5, r6, r7, r8, lr}
10000bb4:	b082      	sub	sp, #8
10000bb6:	4604      	mov	r4, r0
10000bb8:	460e      	mov	r6, r1
10000bba:	f000 f8e9 	bl	10000d90 <time_us_64>
10000bbe:	f04f 32ff 	mov.w	r2, #4294967295
10000bc2:	f06f 4300 	mvn.w	r3, #2147483648	@ 0x80000000
10000bc6:	1824      	adds	r4, r4, r0
10000bc8:	eb46 0601 	adc.w	r6, r6, r1
10000bcc:	42a2      	cmp	r2, r4
10000bce:	eb73 0106 	sbcs.w	r1, r3, r6
10000bd2:	bf3c      	itt	cc
10000bd4:	4614      	movcc	r4, r2
10000bd6:	461e      	movcc	r6, r3
10000bd8:	1fa5      	subs	r5, r4, #6
10000bda:	f146 37ff 	adc.w	r7, r6, #4294967295
10000bde:	42ac      	cmp	r4, r5
10000be0:	eb76 0307 	sbcs.w	r3, r6, r7
10000be4:	bf3c      	itt	cc
10000be6:	2500      	movcc	r5, #0
10000be8:	462f      	movcc	r7, r5
10000bea:	f000 f8d1 	bl	10000d90 <time_us_64>
10000bee:	1a28      	subs	r0, r5, r0
10000bf0:	eb67 0c01 	sbc.w	ip, r7, r1
10000bf4:	2801      	cmp	r0, #1
10000bf6:	f17c 0c00 	sbcs.w	ip, ip, #0
10000bfa:	da06      	bge.n	10000c0a <sleep_us+0x5a>
10000bfc:	4620      	mov	r0, r4
10000bfe:	4631      	mov	r1, r6
10000c00:	b002      	add	sp, #8
10000c02:	e8bd 41f0 	ldmia.w	sp!, {r4, r5, r6, r7, r8, lr}
10000c06:	f000 b8cd 	b.w	10000da4 <busy_wait_until>
10000c0a:	f000 f8c1 	bl	10000d90 <time_us_64>
10000c0e:	4285      	cmp	r5, r0
10000c10:	eb67 0101 	sbc.w	r1, r7, r1
10000c14:	2900      	cmp	r1, #0
10000c16:	db0a      	blt.n	10000c2e <sleep_us+0x7e>
10000c18:	2100      	movs	r1, #0
10000c1a:	4b17      	ldr	r3, [pc, #92]	@ (10000c78 <sleep_us+0xc8>)
10000c1c:	462a      	mov	r2, r5
10000c1e:	9300      	str	r3, [sp, #0]
10000c20:	4816      	ldr	r0, [pc, #88]	@ (10000c7c <sleep_us+0xcc>)
10000c22:	463b      	mov	r3, r7
10000c24:	9101      	str	r1, [sp, #4]
10000c26:	f7ff ff1f 	bl	10000a68 <alarm_pool_add_alarm_at_force_in_context>
10000c2a:	3001      	adds	r0, #1
10000c2c:	d0e6      	beq.n	10000bfc <sleep_us+0x4c>
10000c2e:	f04f 0c00 	mov.w	ip, #0
10000c32:	4a13      	ldr	r2, [pc, #76]	@ (10000c80 <sleep_us+0xd0>)
10000c34:	4913      	ldr	r1, [pc, #76]	@ (10000c84 <sleep_us+0xd4>)
10000c36:	6a53      	ldr	r3, [r2, #36]	@ 0x24
10000c38:	429f      	cmp	r7, r3
10000c3a:	d804      	bhi.n	10000c46 <sleep_us+0x96>
10000c3c:	6a90      	ldr	r0, [r2, #40]	@ 0x28
10000c3e:	42a8      	cmp	r0, r5
10000c40:	d2dc      	bcs.n	10000bfc <sleep_us+0x4c>
10000c42:	429f      	cmp	r7, r3
10000c44:	d1da      	bne.n	10000bfc <sleep_us+0x4c>
10000c46:	680b      	ldr	r3, [r1, #0]
10000c48:	f3ef 8010 	mrs	r0, PRIMASK
10000c4c:	b672      	cpsid	i
10000c4e:	e8d3 8fcf 	ldaexb	r8, [r3]
10000c52:	f05f 0e01 	movs.w	lr, #1
10000c56:	f1b8 0f00 	cmp.w	r8, #0
10000c5a:	d1f8      	bne.n	10000c4e <sleep_us+0x9e>
10000c5c:	e8c3 ef48 	strexb	r8, lr, [r3]
10000c60:	f1b8 0f00 	cmp.w	r8, #0
10000c64:	d1f3      	bne.n	10000c4e <sleep_us+0x9e>
10000c66:	f3bf 8f5f 	dmb	sy
10000c6a:	680b      	ldr	r3, [r1, #0]
10000c6c:	e8c3 cf8f 	stlb	ip, [r3]
10000c70:	f380 8810 	msr	PRIMASK, r0
10000c74:	bf20      	wfe
10000c76:	e7de      	b.n	10000c36 <sleep_us+0x86>
10000c78:	1000063d 	.word	0x1000063d
10000c7c:	20000938 	.word	0x20000938
10000c80:	400b0000 	.word	0x400b0000
10000c84:	20001334 	.word	0x20001334

10000c88 <best_effort_wfe_or_timeout>:
10000c88:	e92d 43f0 	stmdb	sp!, {r4, r5, r6, r7, r8, r9, lr}
10000c8c:	4606      	mov	r6, r0
10000c8e:	460d      	mov	r5, r1
10000c90:	b083      	sub	sp, #12
10000c92:	f3ef 8405 	mrs	r4, IPSR
10000c96:	b2e4      	uxtb	r4, r4
10000c98:	b13c      	cbz	r4, 10000caa <best_effort_wfe_or_timeout+0x22>
10000c9a:	4b2d      	ldr	r3, [pc, #180]	@ (10000d50 <best_effort_wfe_or_timeout+0xc8>)
10000c9c:	6a5a      	ldr	r2, [r3, #36]	@ 0x24
10000c9e:	42aa      	cmp	r2, r5
10000ca0:	d21c      	bcs.n	10000cdc <best_effort_wfe_or_timeout+0x54>
10000ca2:	2000      	movs	r0, #0
10000ca4:	b003      	add	sp, #12
10000ca6:	e8bd 83f0 	ldmia.w	sp!, {r4, r5, r6, r7, r8, r9, pc}
10000caa:	4f2a      	ldr	r7, [pc, #168]	@ (10000d54 <best_effort_wfe_or_timeout+0xcc>)
10000cac:	f8d7 900c 	ldr.w	r9, [r7, #12]
10000cb0:	f897 8000 	ldrb.w	r8, [r7]
10000cb4:	4648      	mov	r0, r9
10000cb6:	f000 f863 	bl	10000d80 <timer_time_us_64>
10000cba:	f108 0804 	add.w	r8, r8, #4
10000cbe:	f859 3028 	ldr.w	r3, [r9, r8, lsl #2]
10000cc2:	1a1b      	subs	r3, r3, r0
10000cc4:	1a30      	subs	r0, r6, r0
10000cc6:	eb65 0101 	sbc.w	r1, r5, r1
10000cca:	4298      	cmp	r0, r3
10000ccc:	f171 0100 	sbcs.w	r1, r1, #0
10000cd0:	db10      	blt.n	10000cf4 <best_effort_wfe_or_timeout+0x6c>
10000cd2:	bf20      	wfe
10000cd4:	4b1e      	ldr	r3, [pc, #120]	@ (10000d50 <best_effort_wfe_or_timeout+0xc8>)
10000cd6:	6a5a      	ldr	r2, [r3, #36]	@ 0x24
10000cd8:	42aa      	cmp	r2, r5
10000cda:	d3e2      	bcc.n	10000ca2 <best_effort_wfe_or_timeout+0x1a>
10000cdc:	bf14      	ite	ne
10000cde:	2401      	movne	r4, #1
10000ce0:	2400      	moveq	r4, #0
10000ce2:	6a9b      	ldr	r3, [r3, #40]	@ 0x28
10000ce4:	42b3      	cmp	r3, r6
10000ce6:	bf34      	ite	cc
10000ce8:	4620      	movcc	r0, r4
10000cea:	f044 0001 	orrcs.w	r0, r4, #1
10000cee:	b003      	add	sp, #12
10000cf0:	e8bd 83f0 	ldmia.w	sp!, {r4, r5, r6, r7, r8, r9, pc}
10000cf4:	f000 f84c 	bl	10000d90 <time_us_64>
10000cf8:	4286      	cmp	r6, r0
10000cfa:	eb65 0101 	sbc.w	r1, r5, r1
10000cfe:	2900      	cmp	r1, #0
10000d00:	db14      	blt.n	10000d2c <best_effort_wfe_or_timeout+0xa4>
10000d02:	4b15      	ldr	r3, [pc, #84]	@ (10000d58 <best_effort_wfe_or_timeout+0xd0>)
10000d04:	4638      	mov	r0, r7
10000d06:	e9cd 3400 	strd	r3, r4, [sp]
10000d0a:	4632      	mov	r2, r6
10000d0c:	462b      	mov	r3, r5
10000d0e:	f7ff feab 	bl	10000a68 <alarm_pool_add_alarm_at_force_in_context>
10000d12:	1e01      	subs	r1, r0, #0
10000d14:	dd0a      	ble.n	10000d2c <best_effort_wfe_or_timeout+0xa4>
10000d16:	4b0e      	ldr	r3, [pc, #56]	@ (10000d50 <best_effort_wfe_or_timeout+0xc8>)
10000d18:	6a5a      	ldr	r2, [r3, #36]	@ 0x24
10000d1a:	42aa      	cmp	r2, r5
10000d1c:	d316      	bcc.n	10000d4c <best_effort_wfe_or_timeout+0xc4>
10000d1e:	6a9b      	ldr	r3, [r3, #40]	@ 0x28
10000d20:	42b3      	cmp	r3, r6
10000d22:	d311      	bcc.n	10000d48 <best_effort_wfe_or_timeout+0xc0>
10000d24:	480b      	ldr	r0, [pc, #44]	@ (10000d54 <best_effort_wfe_or_timeout+0xcc>)
10000d26:	f7ff ff03 	bl	10000b30 <alarm_pool_cancel_alarm>
10000d2a:	e7b6      	b.n	10000c9a <best_effort_wfe_or_timeout+0x12>
10000d2c:	4b08      	ldr	r3, [pc, #32]	@ (10000d50 <best_effort_wfe_or_timeout+0xc8>)
10000d2e:	6a5c      	ldr	r4, [r3, #36]	@ 0x24
10000d30:	42ac      	cmp	r4, r5
10000d32:	d3b6      	bcc.n	10000ca2 <best_effort_wfe_or_timeout+0x1a>
10000d34:	1b64      	subs	r4, r4, r5
10000d36:	bf18      	it	ne
10000d38:	2401      	movne	r4, #1
10000d3a:	6a9b      	ldr	r3, [r3, #40]	@ 0x28
10000d3c:	42b3      	cmp	r3, r6
10000d3e:	bf34      	ite	cc
10000d40:	4620      	movcc	r0, r4
10000d42:	f044 0001 	orrcs.w	r0, r4, #1
10000d46:	e7ad      	b.n	10000ca4 <best_effort_wfe_or_timeout+0x1c>
10000d48:	42aa      	cmp	r2, r5
10000d4a:	d1eb      	bne.n	10000d24 <best_effort_wfe_or_timeout+0x9c>
10000d4c:	bf20      	wfe
10000d4e:	e7e9      	b.n	10000d24 <best_effort_wfe_or_timeout+0x9c>
10000d50:	400b0000 	.word	0x400b0000
10000d54:	20000938 	.word	0x20000938
10000d58:	1000063d 	.word	0x1000063d

10000d5c <timer_hardware_alarm_claim>:
10000d5c:	b410      	push	{r4}
10000d5e:	4b05      	ldr	r3, [pc, #20]	@ (10000d74 <timer_hardware_alarm_claim+0x18>)
10000d60:	4c05      	ldr	r4, [pc, #20]	@ (10000d78 <timer_hardware_alarm_claim+0x1c>)
10000d62:	4a06      	ldr	r2, [pc, #24]	@ (10000d7c <timer_hardware_alarm_claim+0x20>)
10000d64:	42a0      	cmp	r0, r4
10000d66:	bf14      	ite	ne
10000d68:	4618      	movne	r0, r3
10000d6a:	1c58      	addeq	r0, r3, #1
10000d6c:	f85d 4b04 	ldr.w	r4, [sp], #4
10000d70:	f7ff bb86 	b.w	10000480 <hw_claim_or_assert>
10000d74:	20001220 	.word	0x20001220
10000d78:	400b8000 	.word	0x400b8000
10000d7c:	100058c4 	.word	0x100058c4

10000d80 <timer_time_us_64>:
10000d80:	4603      	mov	r3, r0
10000d82:	6a41      	ldr	r1, [r0, #36]	@ 0x24
10000d84:	460a      	mov	r2, r1
10000d86:	6a98      	ldr	r0, [r3, #40]	@ 0x28
10000d88:	6a59      	ldr	r1, [r3, #36]	@ 0x24
10000d8a:	428a      	cmp	r2, r1
10000d8c:	d1fa      	bne.n	10000d84 <timer_time_us_64+0x4>
10000d8e:	4770      	bx	lr

10000d90 <time_us_64>:
10000d90:	4b03      	ldr	r3, [pc, #12]	@ (10000da0 <time_us_64+0x10>)
10000d92:	6a59      	ldr	r1, [r3, #36]	@ 0x24
10000d94:	460a      	mov	r2, r1
10000d96:	6a98      	ldr	r0, [r3, #40]	@ 0x28
10000d98:	6a59      	ldr	r1, [r3, #36]	@ 0x24
10000d9a:	4291      	cmp	r1, r2
10000d9c:	d1fa      	bne.n	10000d94 <time_us_64+0x4>
10000d9e:	4770      	bx	lr
10000da0:	400b0000 	.word	0x400b0000

10000da4 <busy_wait_until>:
10000da4:	4a07      	ldr	r2, [pc, #28]	@ (10000dc4 <busy_wait_until+0x20>)
10000da6:	6a53      	ldr	r3, [r2, #36]	@ 0x24
10000da8:	4299      	cmp	r1, r3
10000daa:	d8fc      	bhi.n	10000da6 <busy_wait_until+0x2>
10000dac:	4299      	cmp	r1, r3
10000dae:	d107      	bne.n	10000dc0 <busy_wait_until+0x1c>
10000db0:	4b04      	ldr	r3, [pc, #16]	@ (10000dc4 <busy_wait_until+0x20>)
10000db2:	e002      	b.n	10000dba <busy_wait_until+0x16>
10000db4:	6a5a      	ldr	r2, [r3, #36]	@ 0x24
10000db6:	4291      	cmp	r1, r2
10000db8:	d102      	bne.n	10000dc0 <busy_wait_until+0x1c>
10000dba:	6a9a      	ldr	r2, [r3, #40]	@ 0x28
10000dbc:	4290      	cmp	r0, r2
10000dbe:	d8f9      	bhi.n	10000db4 <busy_wait_until+0x10>
10000dc0:	4770      	bx	lr
10000dc2:	bf00      	nop
10000dc4:	400b0000 	.word	0x400b0000

10000dc8 <clock_configure_undivided>:
10000dc8:	eb00 0c40 	add.w	ip, r0, r0, lsl #1
10000dcc:	ea4f 0c8c 	mov.w	ip, ip, lsl #2
10000dd0:	f10c 4c80 	add.w	ip, ip, #1073741824	@ 0x40000000
10000dd4:	f50c 3c80 	add.w	ip, ip, #65536	@ 0x10000
10000dd8:	b5f0      	push	{r4, r5, r6, r7, lr}
10000dda:	4616      	mov	r6, r2
10000ddc:	f8dc 2004 	ldr.w	r2, [ip, #4]
10000de0:	1f05      	subs	r5, r0, #4
10000de2:	f5b2 3f80 	cmp.w	r2, #65536	@ 0x10000
10000de6:	bf38      	it	cc
10000de8:	f44f 3280 	movcc.w	r2, #65536	@ 0x10000
10000dec:	b2ed      	uxtb	r5, r5
10000dee:	bf38      	it	cc
10000df0:	f8cc 2004 	strcc.w	r2, [ip, #4]
10000df4:	2d01      	cmp	r5, #1
10000df6:	d92a      	bls.n	10000e4e <clock_configure_undivided+0x86>
10000df8:	f44f 6700 	mov.w	r7, #2048	@ 0x800
10000dfc:	4c25      	ldr	r4, [pc, #148]	@ (10000e94 <clock_configure_undivided+0xcc>)
10000dfe:	f50c 5240 	add.w	r2, ip, #12288	@ 0x3000
10000e02:	6017      	str	r7, [r2, #0]
10000e04:	f854 2020 	ldr.w	r2, [r4, r0, lsl #2]
10000e08:	b9b2      	cbnz	r2, 10000e38 <clock_configure_undivided+0x70>
10000e0a:	f8dc 2000 	ldr.w	r2, [ip]
10000e0e:	2d01      	cmp	r5, #1
10000e10:	ea82 1246 	eor.w	r2, r2, r6, lsl #5
10000e14:	f002 02e0 	and.w	r2, r2, #224	@ 0xe0
10000e18:	f50c 5680 	add.w	r6, ip, #4096	@ 0x1000
10000e1c:	6032      	str	r2, [r6, #0]
10000e1e:	d92a      	bls.n	10000e76 <clock_configure_undivided+0xae>
10000e20:	f44f 6100 	mov.w	r1, #2048	@ 0x800
10000e24:	f844 3020 	str.w	r3, [r4, r0, lsl #2]
10000e28:	f44f 3380 	mov.w	r3, #65536	@ 0x10000
10000e2c:	f50c 5200 	add.w	r2, ip, #8192	@ 0x2000
10000e30:	6011      	str	r1, [r2, #0]
10000e32:	f8cc 3004 	str.w	r3, [ip, #4]
10000e36:	bdf0      	pop	{r4, r5, r6, r7, pc}
10000e38:	6967      	ldr	r7, [r4, #20]
10000e3a:	fbb7 fef2 	udiv	lr, r7, r2
10000e3e:	f10e 0e01 	add.w	lr, lr, #1
10000e42:	eb0e 0e4e 	add.w	lr, lr, lr, lsl #1
10000e46:	f1be 0e03 	subs.w	lr, lr, #3
10000e4a:	d2fc      	bcs.n	10000e46 <clock_configure_undivided+0x7e>
10000e4c:	e7dd      	b.n	10000e0a <clock_configure_undivided+0x42>
10000e4e:	2901      	cmp	r1, #1
10000e50:	d1d2      	bne.n	10000df8 <clock_configure_undivided+0x30>
10000e52:	2403      	movs	r4, #3
10000e54:	f50c 5240 	add.w	r2, ip, #12288	@ 0x3000
10000e58:	6014      	str	r4, [r2, #0]
10000e5a:	f8dc 2008 	ldr.w	r2, [ip, #8]
10000e5e:	07d2      	lsls	r2, r2, #31
10000e60:	d5fb      	bpl.n	10000e5a <clock_configure_undivided+0x92>
10000e62:	f8dc 2000 	ldr.w	r2, [ip]
10000e66:	4c0b      	ldr	r4, [pc, #44]	@ (10000e94 <clock_configure_undivided+0xcc>)
10000e68:	ea82 1246 	eor.w	r2, r2, r6, lsl #5
10000e6c:	f002 02e0 	and.w	r2, r2, #224	@ 0xe0
10000e70:	f50c 5680 	add.w	r6, ip, #4096	@ 0x1000
10000e74:	6032      	str	r2, [r6, #0]
10000e76:	2201      	movs	r2, #1
10000e78:	f8dc 5000 	ldr.w	r5, [ip]
10000e7c:	404d      	eors	r5, r1
10000e7e:	f005 0503 	and.w	r5, r5, #3
10000e82:	6035      	str	r5, [r6, #0]
10000e84:	fa02 f101 	lsl.w	r1, r2, r1
10000e88:	f8dc 2008 	ldr.w	r2, [ip, #8]
10000e8c:	420a      	tst	r2, r1
10000e8e:	d0fb      	beq.n	10000e88 <clock_configure_undivided+0xc0>
10000e90:	e7c6      	b.n	10000e20 <clock_configure_undivided+0x58>
10000e92:	bf00      	nop
10000e94:	20001224 	.word	0x20001224

10000e98 <clock_get_hz>:
10000e98:	4b01      	ldr	r3, [pc, #4]	@ (10000ea0 <clock_get_hz+0x8>)
10000e9a:	f853 0020 	ldr.w	r0, [r3, r0, lsl #2]
10000e9e:	4770      	bx	lr
10000ea0:	20001224 	.word	0x20001224

10000ea4 <pll_init>:
10000ea4:	b470      	push	{r4, r5, r6}
10000ea6:	9d03      	ldr	r5, [sp, #12]
10000ea8:	6804      	ldr	r4, [r0, #0]
10000eaa:	032d      	lsls	r5, r5, #12
10000eac:	ea45 4503 	orr.w	r5, r5, r3, lsl #16
10000eb0:	4b1b      	ldr	r3, [pc, #108]	@ (10000f20 <pll_init+0x7c>)
10000eb2:	2c00      	cmp	r4, #0
10000eb4:	fbb3 f3f1 	udiv	r3, r3, r1
10000eb8:	fbb2 f6f3 	udiv	r6, r2, r3
10000ebc:	db1f      	blt.n	10000efe <pll_init+0x5a>
10000ebe:	4a19      	ldr	r2, [pc, #100]	@ (10000f24 <pll_init+0x80>)
10000ec0:	4b19      	ldr	r3, [pc, #100]	@ (10000f28 <pll_init+0x84>)
10000ec2:	4290      	cmp	r0, r2
10000ec4:	bf14      	ite	ne
10000ec6:	f44f 4280 	movne.w	r2, #16384	@ 0x4000
10000eca:	f44f 4200 	moveq.w	r2, #32768	@ 0x8000
10000ece:	4c17      	ldr	r4, [pc, #92]	@ (10000f2c <pll_init+0x88>)
10000ed0:	601a      	str	r2, [r3, #0]
10000ed2:	f503 5380 	add.w	r3, r3, #4096	@ 0x1000
10000ed6:	601a      	str	r2, [r3, #0]
10000ed8:	68a3      	ldr	r3, [r4, #8]
10000eda:	ea32 0303 	bics.w	r3, r2, r3
10000ede:	d1fb      	bne.n	10000ed8 <pll_init+0x34>
10000ee0:	2221      	movs	r2, #33	@ 0x21
10000ee2:	f500 5340 	add.w	r3, r0, #12288	@ 0x3000
10000ee6:	3304      	adds	r3, #4
10000ee8:	6001      	str	r1, [r0, #0]
10000eea:	6086      	str	r6, [r0, #8]
10000eec:	601a      	str	r2, [r3, #0]
10000eee:	6802      	ldr	r2, [r0, #0]
10000ef0:	2a00      	cmp	r2, #0
10000ef2:	dafc      	bge.n	10000eee <pll_init+0x4a>
10000ef4:	2208      	movs	r2, #8
10000ef6:	60c5      	str	r5, [r0, #12]
10000ef8:	601a      	str	r2, [r3, #0]
10000efa:	bc70      	pop	{r4, r5, r6}
10000efc:	4770      	bx	lr
10000efe:	6803      	ldr	r3, [r0, #0]
10000f00:	f003 033f 	and.w	r3, r3, #63	@ 0x3f
10000f04:	428b      	cmp	r3, r1
10000f06:	d1da      	bne.n	10000ebe <pll_init+0x1a>
10000f08:	6883      	ldr	r3, [r0, #8]
10000f0a:	f3c3 030b 	ubfx	r3, r3, #0, #12
10000f0e:	42b3      	cmp	r3, r6
10000f10:	d1d5      	bne.n	10000ebe <pll_init+0x1a>
10000f12:	68c3      	ldr	r3, [r0, #12]
10000f14:	f403 23ee 	and.w	r3, r3, #487424	@ 0x77000
10000f18:	42ab      	cmp	r3, r5
10000f1a:	d1d0      	bne.n	10000ebe <pll_init+0x1a>
10000f1c:	e7ed      	b.n	10000efa <pll_init+0x56>
10000f1e:	bf00      	nop
10000f20:	00b71b00 	.word	0x00b71b00
10000f24:	40058000 	.word	0x40058000
10000f28:	40022000 	.word	0x40022000
10000f2c:	40020000 	.word	0x40020000

10000f30 <tick_start>:
10000f30:	2301      	movs	r3, #1
10000f32:	eb00 0040 	add.w	r0, r0, r0, lsl #1
10000f36:	0080      	lsls	r0, r0, #2
10000f38:	f100 4080 	add.w	r0, r0, #1073741824	@ 0x40000000
10000f3c:	f500 1084 	add.w	r0, r0, #1081344	@ 0x108000
10000f40:	6041      	str	r1, [r0, #4]
10000f42:	6003      	str	r3, [r0, #0]
10000f44:	4770      	bx	lr
10000f46:	bf00      	nop

10000f48 <rom_func_lookup>:
10000f48:	2300      	movs	r3, #0
10000f4a:	8adb      	ldrh	r3, [r3, #22]
10000f4c:	2200      	movs	r2, #0
10000f4e:	e842 f200 	tt	r2, r2
10000f52:	0252      	lsls	r2, r2, #9
10000f54:	d401      	bmi.n	10000f5a <rom_func_lookup+0x12>
10000f56:	2110      	movs	r1, #16
10000f58:	4718      	bx	r3
10000f5a:	2104      	movs	r1, #4
10000f5c:	4718      	bx	r3
10000f5e:	bf00      	nop

10000f60 <runtime_init_bootrom_locking_enable>:
10000f60:	4a03      	ldr	r2, [pc, #12]	@ (10000f70 <runtime_init_bootrom_locking_enable+0x10>)
10000f62:	f8d2 3828 	ldr.w	r3, [r2, #2088]	@ 0x828
10000f66:	2b00      	cmp	r3, #0
10000f68:	d0fb      	beq.n	10000f62 <runtime_init_bootrom_locking_enable+0x2>
10000f6a:	f3bf 8f5f 	dmb	sy
10000f6e:	4770      	bx	lr
10000f70:	400e0000 	.word	0x400e0000

10000f74 <runtime_init_boot_locks_reset>:
10000f74:	2100      	movs	r1, #0
10000f76:	4b04      	ldr	r3, [pc, #16]	@ (10000f88 <runtime_init_boot_locks_reset+0x14>)
10000f78:	4a04      	ldr	r2, [pc, #16]	@ (10000f8c <runtime_init_boot_locks_reset+0x18>)
10000f7a:	f3bf 8f5f 	dmb	sy
10000f7e:	f843 1b04 	str.w	r1, [r3], #4
10000f82:	4293      	cmp	r3, r2
10000f84:	d1f9      	bne.n	10000f7a <runtime_init_boot_locks_reset+0x6>
10000f86:	4770      	bx	lr
10000f88:	400e080c 	.word	0x400e080c
10000f8c:	400e082c 	.word	0x400e082c

10000f90 <xosc_init>:
10000f90:	b410      	push	{r4}
10000f92:	f44f 708d 	mov.w	r0, #282	@ 0x11a
10000f96:	f44f 642a 	mov.w	r4, #2720	@ 0xaa0
10000f9a:	4a06      	ldr	r2, [pc, #24]	@ (10000fb4 <xosc_init+0x24>)
10000f9c:	4b06      	ldr	r3, [pc, #24]	@ (10000fb8 <xosc_init+0x28>)
10000f9e:	4907      	ldr	r1, [pc, #28]	@ (10000fbc <xosc_init+0x2c>)
10000fa0:	6014      	str	r4, [r2, #0]
10000fa2:	60d0      	str	r0, [r2, #12]
10000fa4:	6019      	str	r1, [r3, #0]
10000fa6:	6853      	ldr	r3, [r2, #4]
10000fa8:	2b00      	cmp	r3, #0
10000faa:	dafc      	bge.n	10000fa6 <xosc_init+0x16>
10000fac:	f85d 4b04 	ldr.w	r4, [sp], #4
10000fb0:	4770      	bx	lr
10000fb2:	bf00      	nop
10000fb4:	40048000 	.word	0x40048000
10000fb8:	4004a000 	.word	0x4004a000
10000fbc:	00fab000 	.word	0x00fab000

10000fc0 <first_per_core_initializer>:
10000fc0:	4770      	bx	lr
10000fc2:	bf00      	nop

10000fc4 <hard_assertion_failure>:
10000fc4:	b508      	push	{r3, lr}
10000fc6:	4801      	ldr	r0, [pc, #4]	@ (10000fcc <hard_assertion_failure+0x8>)
10000fc8:	f7ff fa42 	bl	10000450 <panic>
10000fcc:	100058e8 	.word	0x100058e8

10000fd0 <runtime_run_initializers>:
10000fd0:	b538      	push	{r3, r4, r5, lr}
10000fd2:	4c05      	ldr	r4, [pc, #20]	@ (10000fe8 <runtime_run_initializers+0x18>)
10000fd4:	4d05      	ldr	r5, [pc, #20]	@ (10000fec <runtime_run_initializers+0x1c>)
10000fd6:	42ac      	cmp	r4, r5
10000fd8:	d204      	bcs.n	10000fe4 <runtime_run_initializers+0x14>
10000fda:	f854 3b04 	ldr.w	r3, [r4], #4
10000fde:	4798      	blx	r3
10000fe0:	42ac      	cmp	r4, r5
10000fe2:	d3fa      	bcc.n	10000fda <runtime_run_initializers+0xa>
10000fe4:	bd38      	pop	{r3, r4, r5, pc}
10000fe6:	bf00      	nop
10000fe8:	100057f8 	.word	0x100057f8
10000fec:	10005838 	.word	0x10005838

10000ff0 <runtime_init_early_resets>:
10000ff0:	b410      	push	{r4}
10000ff2:	4807      	ldr	r0, [pc, #28]	@ (10001010 <runtime_init_early_resets+0x20>)
10000ff4:	4c07      	ldr	r4, [pc, #28]	@ (10001014 <runtime_init_early_resets+0x24>)
10000ff6:	4b08      	ldr	r3, [pc, #32]	@ (10001018 <runtime_init_early_resets+0x28>)
10000ff8:	4a08      	ldr	r2, [pc, #32]	@ (1000101c <runtime_init_early_resets+0x2c>)
10000ffa:	4909      	ldr	r1, [pc, #36]	@ (10001020 <runtime_init_early_resets+0x30>)
10000ffc:	6004      	str	r4, [r0, #0]
10000ffe:	601a      	str	r2, [r3, #0]
10001000:	688b      	ldr	r3, [r1, #8]
10001002:	ea32 0303 	bics.w	r3, r2, r3
10001006:	d1fb      	bne.n	10001000 <runtime_init_early_resets+0x10>
10001008:	f85d 4b04 	ldr.w	r4, [sp], #4
1000100c:	4770      	bx	lr
1000100e:	bf00      	nop
10001010:	40022000 	.word	0x40022000
10001014:	efef3b7f 	.word	0xefef3b7f
10001018:	40023000 	.word	0x40023000
1000101c:	03f3fff6 	.word	0x03f3fff6
10001020:	40020000 	.word	0x40020000

10001024 <runtime_init_usb_power_down>:
10001024:	4b04      	ldr	r3, [pc, #16]	@ (10001038 <runtime_init_usb_power_down+0x14>)
10001026:	6cdb      	ldr	r3, [r3, #76]	@ 0x4c
10001028:	f5b3 4f00 	cmp.w	r3, #32768	@ 0x8000
1000102c:	d103      	bne.n	10001036 <runtime_init_usb_power_down+0x12>
1000102e:	f44f 2280 	mov.w	r2, #262144	@ 0x40000
10001032:	4b02      	ldr	r3, [pc, #8]	@ (1000103c <runtime_init_usb_power_down+0x18>)
10001034:	64da      	str	r2, [r3, #76]	@ 0x4c
10001036:	4770      	bx	lr
10001038:	50110000 	.word	0x50110000
1000103c:	50112000 	.word	0x50112000

10001040 <runtime_init_per_core_enable_coprocessors>:
10001040:	f04f 22e0 	mov.w	r2, #3758153728	@ 0xe000e000
10001044:	4b04      	ldr	r3, [pc, #16]	@ (10001058 <runtime_init_per_core_enable_coprocessors+0x18>)
10001046:	f8d2 1d88 	ldr.w	r1, [r2, #3464]	@ 0xd88
1000104a:	430b      	orrs	r3, r1
1000104c:	f8c2 3d88 	str.w	r3, [r2, #3464]	@ 0xd88
10001050:	ee10 0430 			dcp_rcmp r0
10001054:	4770      	bx	lr
10001056:	bf00      	nop
10001058:	00300303 	.word	0x00300303

1000105c <runtime_init_post_clock_resets>:
1000105c:	f06f 4160 	mvn.w	r1, #3758096384	@ 0xe0000000
10001060:	4b04      	ldr	r3, [pc, #16]	@ (10001074 <runtime_init_post_clock_resets+0x18>)
10001062:	4a05      	ldr	r2, [pc, #20]	@ (10001078 <runtime_init_post_clock_resets+0x1c>)
10001064:	6019      	str	r1, [r3, #0]
10001066:	6893      	ldr	r3, [r2, #8]
10001068:	43db      	mvns	r3, r3
1000106a:	f033 4360 	bics.w	r3, r3, #3758096384	@ 0xe0000000
1000106e:	d1fa      	bne.n	10001066 <runtime_init_post_clock_resets+0xa>
10001070:	4770      	bx	lr
10001072:	bf00      	nop
10001074:	40023000 	.word	0x40023000
10001078:	40020000 	.word	0x40020000

1000107c <runtime_init_bootrom_reset>:
1000107c:	b510      	push	{r4, lr}
1000107e:	f245 2053 	movw	r0, #21075	@ 0x5253
10001082:	f7ff ff61 	bl	10000f48 <rom_func_lookup>
10001086:	e8bd 4010 	ldmia.w	sp!, {r4, lr}
1000108a:	4603      	mov	r3, r0
1000108c:	2004      	movs	r0, #4
1000108e:	4718      	bx	r3

10001090 <runtime_init_per_core_bootrom_reset>:
10001090:	b510      	push	{r4, lr}
10001092:	f245 2053 	movw	r0, #21075	@ 0x5253
10001096:	f7ff ff57 	bl	10000f48 <rom_func_lookup>
1000109a:	e8bd 4010 	ldmia.w	sp!, {r4, lr}
1000109e:	4603      	mov	r3, r0
100010a0:	2001      	movs	r0, #1
100010a2:	4718      	bx	r3

100010a4 <runtime_init_spin_locks_reset>:
100010a4:	f7ff ba2c 	b.w	10000500 <spin_locks_reset>

100010a8 <runtime_init_install_ram_vector_table>:
100010a8:	b510      	push	{r4, lr}
100010aa:	4b05      	ldr	r3, [pc, #20]	@ (100010c0 <runtime_init_install_ram_vector_table+0x18>)
100010ac:	4c05      	ldr	r4, [pc, #20]	@ (100010c4 <runtime_init_install_ram_vector_table+0x1c>)
100010ae:	f44f 7288 	mov.w	r2, #272	@ 0x110
100010b2:	4618      	mov	r0, r3
100010b4:	68a1      	ldr	r1, [r4, #8]
100010b6:	f004 f997 	bl	100053e8 <memcpy>
100010ba:	60a0      	str	r0, [r4, #8]
100010bc:	bd10      	pop	{r4, pc}
100010be:	bf00      	nop
100010c0:	20000000 	.word	0x20000000
100010c4:	e000ed00 	.word	0xe000ed00

100010c8 <runtime_init_clocks>:
100010c8:	2300      	movs	r3, #0
100010ca:	b570      	push	{r4, r5, r6, lr}
100010cc:	4c2b      	ldr	r4, [pc, #172]	@ (1000117c <runtime_init_clocks+0xb4>)
100010ce:	b082      	sub	sp, #8
100010d0:	f8c4 3084 	str.w	r3, [r4, #132]	@ 0x84
100010d4:	f7ff ff5c 	bl	10000f90 <xosc_init>
100010d8:	2201      	movs	r2, #1
100010da:	4b29      	ldr	r3, [pc, #164]	@ (10001180 <runtime_init_clocks+0xb8>)
100010dc:	63da      	str	r2, [r3, #60]	@ 0x3c
100010de:	6c63      	ldr	r3, [r4, #68]	@ 0x44
100010e0:	2b01      	cmp	r3, #1
100010e2:	d1fc      	bne.n	100010de <runtime_init_clocks+0x16>
100010e4:	2103      	movs	r1, #3
100010e6:	4a26      	ldr	r2, [pc, #152]	@ (10001180 <runtime_init_clocks+0xb8>)
100010e8:	4b24      	ldr	r3, [pc, #144]	@ (1000117c <runtime_init_clocks+0xb4>)
100010ea:	6311      	str	r1, [r2, #48]	@ 0x30
100010ec:	6b9c      	ldr	r4, [r3, #56]	@ 0x38
100010ee:	2c01      	cmp	r4, #1
100010f0:	d1fc      	bne.n	100010ec <runtime_init_clocks+0x24>
100010f2:	2602      	movs	r6, #2
100010f4:	2505      	movs	r5, #5
100010f6:	4621      	mov	r1, r4
100010f8:	2305      	movs	r3, #5
100010fa:	4a22      	ldr	r2, [pc, #136]	@ (10001184 <runtime_init_clocks+0xbc>)
100010fc:	4822      	ldr	r0, [pc, #136]	@ (10001188 <runtime_init_clocks+0xc0>)
100010fe:	9600      	str	r6, [sp, #0]
10001100:	f7ff fed0 	bl	10000ea4 <pll_init>
10001104:	4621      	mov	r1, r4
10001106:	462b      	mov	r3, r5
10001108:	4a20      	ldr	r2, [pc, #128]	@ (1000118c <runtime_init_clocks+0xc4>)
1000110a:	4821      	ldr	r0, [pc, #132]	@ (10001190 <runtime_init_clocks+0xc8>)
1000110c:	9500      	str	r5, [sp, #0]
1000110e:	f7ff fec9 	bl	10000ea4 <pll_init>
10001112:	2200      	movs	r2, #0
10001114:	2004      	movs	r0, #4
10001116:	4631      	mov	r1, r6
10001118:	4b1e      	ldr	r3, [pc, #120]	@ (10001194 <runtime_init_clocks+0xcc>)
1000111a:	f7ff fe55 	bl	10000dc8 <clock_configure_undivided>
1000111e:	4621      	mov	r1, r4
10001120:	4628      	mov	r0, r5
10001122:	2200      	movs	r2, #0
10001124:	4b1c      	ldr	r3, [pc, #112]	@ (10001198 <runtime_init_clocks+0xd0>)
10001126:	f7ff fe4f 	bl	10000dc8 <clock_configure_undivided>
1000112a:	2200      	movs	r2, #0
1000112c:	2008      	movs	r0, #8
1000112e:	4611      	mov	r1, r2
10001130:	4b1a      	ldr	r3, [pc, #104]	@ (1000119c <runtime_init_clocks+0xd4>)
10001132:	f7ff fe49 	bl	10000dc8 <clock_configure_undivided>
10001136:	2200      	movs	r2, #0
10001138:	2009      	movs	r0, #9
1000113a:	4611      	mov	r1, r2
1000113c:	4b17      	ldr	r3, [pc, #92]	@ (1000119c <runtime_init_clocks+0xd4>)
1000113e:	f7ff fe43 	bl	10000dc8 <clock_configure_undivided>
10001142:	2200      	movs	r2, #0
10001144:	2006      	movs	r0, #6
10001146:	4611      	mov	r1, r2
10001148:	4b13      	ldr	r3, [pc, #76]	@ (10001198 <runtime_init_clocks+0xd0>)
1000114a:	f7ff fe3d 	bl	10000dc8 <clock_configure_undivided>
1000114e:	2200      	movs	r2, #0
10001150:	4b11      	ldr	r3, [pc, #68]	@ (10001198 <runtime_init_clocks+0xd0>)
10001152:	2007      	movs	r0, #7
10001154:	4611      	mov	r1, r2
10001156:	f7ff fe37 	bl	10000dc8 <clock_configure_undivided>
1000115a:	2004      	movs	r0, #4
1000115c:	f7ff fe9c 	bl	10000e98 <clock_get_hz>
10001160:	2400      	movs	r4, #0
10001162:	4b0f      	ldr	r3, [pc, #60]	@ (100011a0 <runtime_init_clocks+0xd8>)
10001164:	fba3 3500 	umull	r3, r5, r3, r0
10001168:	0cad      	lsrs	r5, r5, #18
1000116a:	b2e0      	uxtb	r0, r4
1000116c:	4629      	mov	r1, r5
1000116e:	3401      	adds	r4, #1
10001170:	f7ff fede 	bl	10000f30 <tick_start>
10001174:	2c06      	cmp	r4, #6
10001176:	d1f8      	bne.n	1000116a <runtime_init_clocks+0xa2>
10001178:	b002      	add	sp, #8
1000117a:	bd70      	pop	{r4, r5, r6, pc}
1000117c:	40010000 	.word	0x40010000
10001180:	40013000 	.word	0x40013000
10001184:	59682f00 	.word	0x59682f00
10001188:	40050000 	.word	0x40050000
1000118c:	47868c00 	.word	0x47868c00
10001190:	40058000 	.word	0x40058000
10001194:	00b71b00 	.word	0x00b71b00
10001198:	08f0d180 	.word	0x08f0d180
1000119c:	02dc6c00 	.word	0x02dc6c00
100011a0:	431bde83 	.word	0x431bde83

100011a4 <generic_save_state>:
100011a4:	b086      	sub	sp, #24
100011a6:	b403      	push	{r0, r1}
100011a8:	fc51 0408 	dcp_pxmd r0, r1
100011ac:	e9cd 0102 	strd	r0, r1, [sp, #8]
100011b0:	fc51 0409 	dcp_pymd r0, r1
100011b4:	e9cd 0104 	strd	r0, r1, [sp, #16]
100011b8:	ec51 040a 	dcp_refd r0, r1
100011bc:	e9cd 0106 	strd	r0, r1, [sp, #24]
100011c0:	bc03      	pop	{r0, r1}
100011c2:	47f0      	blx	lr

100011c4 <generic_restore_state>:
100011c4:	e8bd 5000 	ldmia.w	sp!, {ip, lr}
100011c8:	ec4e c400 	dcp_wxmd ip, lr
100011cc:	e8bd 5000 	ldmia.w	sp!, {ip, lr}
100011d0:	ec4e c401 	dcp_wymd ip, lr
100011d4:	e8bd 5000 	ldmia.w	sp!, {ip, lr}
100011d8:	ec4e c402 	dcp_wefd ip, lr
100011dc:	bd00      	pop	{pc}
100011de:	0000      	movs	r0, r0
100011e0:	b500      	push	{lr}
100011e2:	f7ff ffdf 	bl	100011a4 <generic_save_state>
100011e6:	e002      	b.n	100011ee <__wrap___aeabi_dadd+0x6>

100011e8 <__wrap___aeabi_dadd>:
100011e8:	fe10 f430 	dcp_pcmp APSR_nzcv
100011ec:	d4f8      	bmi.n	100011e0 <generic_restore_state+0x1c>
100011ee:	ec41 0410 	dcp_wxup r0, r1
100011f2:	ec43 2411 	dcp_wyup r2, r3
100011f6:	ee00 0401 			dcp_add0
100011fa:	ee10 0401 			dcp_add1
100011fe:	ee80 0420 			dcp_nrdd
10001202:	ec51 0410 	dcp_rdda r0, r1
10001206:	4770      	bx	lr
10001208:	b500      	push	{lr}
1000120a:	f7ff ffcb 	bl	100011a4 <generic_save_state>
1000120e:	e002      	b.n	10001216 <__wrap___aeabi_dsub+0x6>

10001210 <__wrap___aeabi_dsub>:
10001210:	fe10 f430 	dcp_pcmp APSR_nzcv
10001214:	d4f8      	bmi.n	10001208 <__wrap___aeabi_dadd+0x20>
10001216:	ec41 0410 	dcp_wxup r0, r1
1000121a:	ec43 2411 	dcp_wyup r2, r3
1000121e:	ee00 0401 			dcp_add0
10001222:	ee10 0421 			dcp_sub1
10001226:	ee80 0420 			dcp_nrdd
1000122a:	ec51 0430 	dcp_rdds r0, r1
1000122e:	4770      	bx	lr
10001230:	b500      	push	{lr}
10001232:	f7ff ffb7 	bl	100011a4 <generic_save_state>
10001236:	e002      	b.n	1000123e <__wrap___aeabi_dmul+0x6>

10001238 <__wrap___aeabi_dmul>:
10001238:	fe10 f430 	dcp_pcmp APSR_nzcv
1000123c:	d4f8      	bmi.n	10001230 <__wrap___aeabi_dsub+0x20>
1000123e:	b510      	push	{r4, lr}
10001240:	ec41 0410 	dcp_wxup r0, r1
10001244:	ec43 2411 	dcp_wyup r2, r3
10001248:	ec51 0404 	dcp_rxms r0, r1, #0x0
1000124c:	ec53 2405 	dcp_ryms r2, r3, #0x0
10001250:	fba0 4c02 	umull	r4, ip, r0, r2
10001254:	f05f 0e00 	movs.w	lr, #0
10001258:	fbe0 ce03 	umlal	ip, lr, r0, r3
1000125c:	fbe1 ce02 	umlal	ip, lr, r1, r2
10001260:	ec4c 4420 	dcp_wxms r4, ip
10001264:	2400      	movs	r4, #0
10001266:	fbe1 e403 	umlal	lr, r4, r1, r3
1000126a:	ec44 e430 	dcp_wxmo lr, r4
1000126e:	ee80 0420 			dcp_nrdd
10001272:	ec51 0450 	dcp_rddm r0, r1
10001276:	e8bd 4010 	ldmia.w	sp!, {r4, lr}
1000127a:	4770      	bx	lr
1000127c:	b500      	push	{lr}
1000127e:	f7ff ff91 	bl	100011a4 <generic_save_state>
10001282:	e002      	b.n	1000128a <__wrap___aeabi_ddiv+0x6>

10001284 <__wrap___aeabi_ddiv>:
10001284:	fe10 f430 	dcp_pcmp APSR_nzcv
10001288:	d4f8      	bmi.n	1000127c <__wrap___aeabi_dmul+0x44>
1000128a:	ec41 0410 	dcp_wxup r0, r1
1000128e:	ec43 2411 	dcp_wyup r2, r3
10001292:	ec51 0421 	dcp_rymr r0, r1
10001296:	fba0 1201 	umull	r1, r2, r0, r1
1000129a:	ea6f 0282 	mvn.w	r2, r2, lsl #2
1000129e:	fb52 0010 	smmlar	r0, r2, r0, r0
100012a2:	fb52 f212 	smmulr	r2, r2, r2
100012a6:	fb52 0010 	smmlar	r0, r2, r0, r0
100012aa:	eba0 7cd0 	sub.w	ip, r0, r0, lsr #31
100012ae:	ec53 2404 	dcp_rxms r2, r3, #0x0
100012b2:	fb5c f113 	smmulr	r1, ip, r3
100012b6:	ec53 2415 	dcp_ryms r2, r3, #0x1
100012ba:	fba1 2002 	umull	r2, r0, r1, r2
100012be:	fb01 0003 	mla	r0, r1, r3, r0
100012c2:	ec53 2444 	dcp_rxms r2, r3, #0x4
100012c6:	eba2 0000 	sub.w	r0, r2, r0
100012ca:	fb50 f21c 	smmulr	r2, r0, ip
100012ce:	ea4f 1311 	mov.w	r3, r1, lsr #4
100012d2:	eb12 7001 	adds.w	r0, r2, r1, lsl #28
100012d6:	eb43 71e2 	adc.w	r1, r3, r2, asr #31
100012da:	ea40 5051 	orr.w	r0, r0, r1, lsr #21
100012de:	ea20 5091 	bic.w	r0, r0, r1, lsr #22
100012e2:	f020 0007 	bic.w	r0, r0, #7
100012e6:	ec53 2475 	dcp_ryms r2, r3, #0x7
100012ea:	fba0 3c02 	umull	r3, ip, r0, r2
100012ee:	ec53 2475 	dcp_ryms r2, r3, #0x7
100012f2:	fb00 cc03 	mla	ip, r0, r3, ip
100012f6:	fb01 cc02 	mla	ip, r1, r2, ip
100012fa:	ec53 2404 	dcp_rxms r2, r3, #0x0
100012fe:	ebac 4c82 	sub.w	ip, ip, r2, lsl #18
10001302:	ea40 705c 	orr.w	r0, r0, ip, lsr #29
10001306:	f1a0 0001 	sub.w	r0, r0, #1
1000130a:	ec41 0440 	dcp_wxdd r0, r1
1000130e:	ee80 0420 			dcp_nrdd
10001312:	ec51 0470 	dcp_rddd r0, r1
10001316:	4770      	bx	lr
10001318:	b500      	push	{lr}
1000131a:	f7ff ff43 	bl	100011a4 <generic_save_state>
1000131e:	e002      	b.n	10001326 <__wrap___aeabi_d2f+0x6>

10001320 <__wrap___aeabi_d2f>:
10001320:	fe10 f430 	dcp_pcmp APSR_nzcv
10001324:	d4f8      	bmi.n	10001318 <__wrap___aeabi_ddiv+0x94>
10001326:	ec41 0410 	dcp_wxup r0, r1
1000132a:	ee80 0422 			dcp_nrdf
1000132e:	ee10 04b2 			dcp_rdfg r0
10001332:	4770      	bx	lr
10001334:	b500      	push	{lr}
10001336:	f7ff ff35 	bl	100011a4 <generic_save_state>
1000133a:	e002      	b.n	10001342 <__wrap___aeabi_i2d+0x6>

1000133c <__wrap___aeabi_i2d>:
1000133c:	fe10 f430 	dcp_pcmp APSR_nzcv
10001340:	d4f8      	bmi.n	10001334 <__wrap___aeabi_d2f+0x14>
10001342:	ec40 0470 	dcp_wxic r0, r0
10001346:	ee00 0401 			dcp_add0
1000134a:	ee10 0421 			dcp_sub1
1000134e:	ee80 0420 			dcp_nrdd
10001352:	ec51 0430 	dcp_rdds r0, r1
10001356:	4770      	bx	lr
10001358:	b500      	push	{lr}
1000135a:	f7ff ff23 	bl	100011a4 <generic_save_state>
1000135e:	e002      	b.n	10001366 <__wrap___aeabi_ui2d+0x6>

10001360 <__wrap___aeabi_ui2d>:
10001360:	fe10 f430 	dcp_pcmp APSR_nzcv
10001364:	d4f8      	bmi.n	10001358 <__wrap___aeabi_i2d+0x1c>
10001366:	ec40 0460 	dcp_wxuc r0, r0
1000136a:	ee00 0401 			dcp_add0
1000136e:	ee10 0421 			dcp_sub1
10001372:	ee80 0420 			dcp_nrdd
10001376:	ec51 0430 	dcp_rdds r0, r1
1000137a:	4770      	bx	lr
1000137c:	b500      	push	{lr}
1000137e:	f7ff ff11 	bl	100011a4 <generic_save_state>
10001382:	e002      	b.n	1000138a <double2int_z_entry>

10001384 <__wrap___aeabi_d2iz>:
10001384:	fe10 f430 	dcp_pcmp APSR_nzcv
10001388:	d4f8      	bmi.n	1000137c <__wrap___aeabi_ui2d+0x1c>

1000138a <double2int_z_entry>:
1000138a:	ec41 0480 	dcp_wxdc r0, r1
1000138e:	ee00 0401 			dcp_add0
10001392:	ee10 0401 			dcp_add1
10001396:	ee80 0440 			dcp_ntdc
1000139a:	ee10 0413 			dcp_rdic r0
1000139e:	4770      	bx	lr
100013a0:	b500      	push	{lr}
100013a2:	f7ff feff 	bl	100011a4 <generic_save_state>
100013a6:	e002      	b.n	100013ae <double2uint_z_entry>

100013a8 <__wrap___aeabi_d2uiz>:
100013a8:	fe10 f430 	dcp_pcmp APSR_nzcv
100013ac:	d4f8      	bmi.n	100013a0 <double2int_z_entry+0x16>

100013ae <double2uint_z_entry>:
100013ae:	ec41 0480 	dcp_wxdc r0, r1
100013b2:	ee00 0401 			dcp_add0
100013b6:	ee10 0401 			dcp_add1
100013ba:	ee80 0440 			dcp_ntdc
100013be:	ee10 0433 			dcp_rduc r0
100013c2:	4770      	bx	lr
100013c4:	b500      	push	{lr}
100013c6:	f7ff feed 	bl	100011a4 <generic_save_state>
100013ca:	e002      	b.n	100013d2 <__wrap___aeabi_dcmpun+0x6>

100013cc <__wrap___aeabi_dcmpun>:
100013cc:	fe10 f430 	dcp_pcmp APSR_nzcv
100013d0:	d4f8      	bmi.n	100013c4 <double2uint_z_entry+0x16>
100013d2:	ec41 0410 	dcp_wxup r0, r1
100013d6:	ec43 2411 	dcp_wyup r2, r3
100013da:	ee00 0401 			dcp_add0
100013de:	ee10 0430 			dcp_rcmp r0
100013e2:	f3c0 7000 	ubfx	r0, r0, #28, #1
100013e6:	4770      	bx	lr
100013e8:	b500      	push	{lr}
100013ea:	f7ff fedb 	bl	100011a4 <generic_save_state>
100013ee:	e002      	b.n	100013f6 <__wrap___aeabi_dcmplt+0x6>

100013f0 <__wrap___aeabi_dcmplt>:
100013f0:	fe10 f430 	dcp_pcmp APSR_nzcv
100013f4:	d4f8      	bmi.n	100013e8 <__wrap___aeabi_dcmpun+0x1c>
100013f6:	ec43 2410 	dcp_wxup r2, r3
100013fa:	ec41 0411 	dcp_wyup r0, r1
100013fe:	ee00 0401 			dcp_add0
10001402:	ee10 f430 			dcp_rcmp APSR_nzcv
10001406:	bf8c      	ite	hi
10001408:	2001      	movhi	r0, #1
1000140a:	2000      	movls	r0, #0
1000140c:	4770      	bx	lr
1000140e:	bf00      	nop
10001410:	b500      	push	{lr}
10001412:	f7ff fec7 	bl	100011a4 <generic_save_state>
10001416:	e002      	b.n	1000141e <__wrap___aeabi_dcmple+0x6>

10001418 <__wrap___aeabi_dcmple>:
10001418:	fe10 f430 	dcp_pcmp APSR_nzcv
1000141c:	d4f8      	bmi.n	10001410 <__wrap___aeabi_dcmplt+0x20>
1000141e:	ec43 2410 	dcp_wxup r2, r3
10001422:	ec41 0411 	dcp_wyup r0, r1
10001426:	ee00 0401 			dcp_add0
1000142a:	ee10 f430 			dcp_rcmp APSR_nzcv
1000142e:	bf2c      	ite	cs
10001430:	2001      	movcs	r0, #1
10001432:	2000      	movcc	r0, #0
10001434:	4770      	bx	lr
10001436:	bf00      	nop
10001438:	b500      	push	{lr}
1000143a:	f7ff feb3 	bl	100011a4 <generic_save_state>
1000143e:	e002      	b.n	10001446 <__wrap___aeabi_dcmpge+0x6>

10001440 <__wrap___aeabi_dcmpge>:
10001440:	fe10 f430 	dcp_pcmp APSR_nzcv
10001444:	d4f8      	bmi.n	10001438 <__wrap___aeabi_dcmple+0x20>
10001446:	ec41 0410 	dcp_wxup r0, r1
1000144a:	ec43 2411 	dcp_wyup r2, r3
1000144e:	ee00 0401 			dcp_add0
10001452:	ee10 f430 			dcp_rcmp APSR_nzcv
10001456:	bf2c      	ite	cs
10001458:	2001      	movcs	r0, #1
1000145a:	2000      	movcc	r0, #0
1000145c:	4770      	bx	lr
1000145e:	bf00      	nop
10001460:	b500      	push	{lr}
10001462:	f7ff fe9f 	bl	100011a4 <generic_save_state>
10001466:	e002      	b.n	1000146e <__wrap___aeabi_dcmpgt+0x6>

10001468 <__wrap___aeabi_dcmpgt>:
10001468:	fe10 f430 	dcp_pcmp APSR_nzcv
1000146c:	d4f8      	bmi.n	10001460 <__wrap___aeabi_dcmpge+0x20>
1000146e:	ec41 0410 	dcp_wxup r0, r1
10001472:	ec43 2411 	dcp_wyup r2, r3
10001476:	ee00 0401 			dcp_add0
1000147a:	ee10 f430 			dcp_rcmp APSR_nzcv
1000147e:	bf8c      	ite	hi
10001480:	2001      	movhi	r0, #1
10001482:	2000      	movls	r0, #0
10001484:	4770      	bx	lr
10001486:	bf00      	nop

10001488 <__wrap_malloc>:
10001488:	b510      	push	{r4, lr}
1000148a:	4604      	mov	r4, r0
1000148c:	f003 fc5c 	bl	10004d48 <malloc>
10001490:	b128      	cbz	r0, 1000149e <__wrap_malloc+0x16>
10001492:	4603      	mov	r3, r0
10001494:	4a03      	ldr	r2, [pc, #12]	@ (100014a4 <__wrap_malloc+0x1c>)
10001496:	4423      	add	r3, r4
10001498:	4293      	cmp	r3, r2
1000149a:	d800      	bhi.n	1000149e <__wrap_malloc+0x16>
1000149c:	bd10      	pop	{r4, pc}
1000149e:	4802      	ldr	r0, [pc, #8]	@ (100014a8 <__wrap_malloc+0x20>)
100014a0:	f7fe ffd6 	bl	10000450 <panic>
100014a4:	20080000 	.word	0x20080000
100014a8:	100058f4 	.word	0x100058f4

100014ac <__wrap_free>:
100014ac:	f003 bc54 	b.w	10004d58 <free>

100014b0 <_out_null>:
100014b0:	4770      	bx	lr
100014b2:	bf00      	nop

100014b4 <_out_rev>:
100014b4:	e92d 4ff0 	stmdb	sp!, {r4, r5, r6, r7, r8, r9, sl, fp, lr}
100014b8:	b083      	sub	sp, #12
100014ba:	4699      	mov	r9, r3
100014bc:	e9dd ab0d 	ldrd	sl, fp, [sp, #52]	@ 0x34
100014c0:	9b0f      	ldr	r3, [sp, #60]	@ 0x3c
100014c2:	4688      	mov	r8, r1
100014c4:	4611      	mov	r1, r2
100014c6:	079a      	lsls	r2, r3, #30
100014c8:	4607      	mov	r7, r0
100014ca:	d116      	bne.n	100014fa <_out_rev+0x46>
100014cc:	45da      	cmp	sl, fp
100014ce:	d23a      	bcs.n	10001546 <_out_rev+0x92>
100014d0:	460c      	mov	r4, r1
100014d2:	460d      	mov	r5, r1
100014d4:	ebab 060a 	sub.w	r6, fp, sl
100014d8:	440e      	add	r6, r1
100014da:	4622      	mov	r2, r4
100014dc:	464b      	mov	r3, r9
100014de:	4641      	mov	r1, r8
100014e0:	2020      	movs	r0, #32
100014e2:	3401      	adds	r4, #1
100014e4:	47b8      	blx	r7
100014e6:	42b4      	cmp	r4, r6
100014e8:	d1f7      	bne.n	100014da <_out_rev+0x26>
100014ea:	4629      	mov	r1, r5
100014ec:	f1ba 0f00 	cmp.w	sl, #0
100014f0:	d108      	bne.n	10001504 <_out_rev+0x50>
100014f2:	4620      	mov	r0, r4
100014f4:	b003      	add	sp, #12
100014f6:	e8bd 8ff0 	ldmia.w	sp!, {r4, r5, r6, r7, r8, r9, sl, fp, pc}
100014fa:	460c      	mov	r4, r1
100014fc:	f1ba 0f00 	cmp.w	sl, #0
10001500:	d010      	beq.n	10001524 <_out_rev+0x70>
10001502:	460e      	mov	r6, r1
10001504:	4655      	mov	r5, sl
10001506:	9b0c      	ldr	r3, [sp, #48]	@ 0x30
10001508:	442e      	add	r6, r5
1000150a:	449a      	add	sl, r3
1000150c:	9101      	str	r1, [sp, #4]
1000150e:	1b72      	subs	r2, r6, r5
10001510:	464b      	mov	r3, r9
10001512:	3d01      	subs	r5, #1
10001514:	4641      	mov	r1, r8
10001516:	f81a 0d01 	ldrb.w	r0, [sl, #-1]!
1000151a:	4634      	mov	r4, r6
1000151c:	47b8      	blx	r7
1000151e:	2d00      	cmp	r5, #0
10001520:	d1f5      	bne.n	1000150e <_out_rev+0x5a>
10001522:	9901      	ldr	r1, [sp, #4]
10001524:	9b0f      	ldr	r3, [sp, #60]	@ 0x3c
10001526:	079b      	lsls	r3, r3, #30
10001528:	d5e3      	bpl.n	100014f2 <_out_rev+0x3e>
1000152a:	1a65      	subs	r5, r4, r1
1000152c:	45ab      	cmp	fp, r5
1000152e:	d9e0      	bls.n	100014f2 <_out_rev+0x3e>
10001530:	4622      	mov	r2, r4
10001532:	464b      	mov	r3, r9
10001534:	4641      	mov	r1, r8
10001536:	2020      	movs	r0, #32
10001538:	3501      	adds	r5, #1
1000153a:	47b8      	blx	r7
1000153c:	455d      	cmp	r5, fp
1000153e:	f104 0401 	add.w	r4, r4, #1
10001542:	d3f5      	bcc.n	10001530 <_out_rev+0x7c>
10001544:	e7d5      	b.n	100014f2 <_out_rev+0x3e>
10001546:	460c      	mov	r4, r1
10001548:	f1ba 0f00 	cmp.w	sl, #0
1000154c:	d1d9      	bne.n	10001502 <_out_rev+0x4e>
1000154e:	e7d0      	b.n	100014f2 <_out_rev+0x3e>

10001550 <_ntoa_format>:
10001550:	e92d 4ff0 	stmdb	sp!, {r4, r5, r6, r7, r8, r9, sl, fp, lr}
10001554:	9f0f      	ldr	r7, [sp, #60]	@ 0x3c
10001556:	f8dd 8024 	ldr.w	r8, [sp, #36]	@ 0x24
1000155a:	f017 0f02 	tst.w	r7, #2
1000155e:	9c0a      	ldr	r4, [sp, #40]	@ 0x28
10001560:	f89d a02c 	ldrb.w	sl, [sp, #44]	@ 0x2c
10001564:	9d0e      	ldr	r5, [sp, #56]	@ 0x38
10001566:	e9dd 960c 	ldrd	r9, r6, [sp, #48]	@ 0x30
1000156a:	d144      	bne.n	100015f6 <_ntoa_format+0xa6>
1000156c:	bbf5      	cbnz	r5, 100015ec <_ntoa_format+0x9c>
1000156e:	42b4      	cmp	r4, r6
10001570:	d241      	bcs.n	100015f6 <_ntoa_format+0xa6>
10001572:	f007 0b01 	and.w	fp, r7, #1
10001576:	f104 3cff 	add.w	ip, r4, #4294967295
1000157a:	f04f 0e30 	mov.w	lr, #48	@ 0x30
1000157e:	44c4      	add	ip, r8
10001580:	e004      	b.n	1000158c <_ntoa_format+0x3c>
10001582:	3401      	adds	r4, #1
10001584:	42a6      	cmp	r6, r4
10001586:	f80c ef01 	strb.w	lr, [ip, #1]!
1000158a:	d901      	bls.n	10001590 <_ntoa_format+0x40>
1000158c:	2c20      	cmp	r4, #32
1000158e:	d1f8      	bne.n	10001582 <_ntoa_format+0x32>
10001590:	f1bb 0f00 	cmp.w	fp, #0
10001594:	f000 8088 	beq.w	100016a8 <_ntoa_format+0x158>
10001598:	42a5      	cmp	r5, r4
1000159a:	d92c      	bls.n	100015f6 <_ntoa_format+0xa6>
1000159c:	f104 3cff 	add.w	ip, r4, #4294967295
100015a0:	f04f 0e30 	mov.w	lr, #48	@ 0x30
100015a4:	44c4      	add	ip, r8
100015a6:	e004      	b.n	100015b2 <_ntoa_format+0x62>
100015a8:	3401      	adds	r4, #1
100015aa:	42ac      	cmp	r4, r5
100015ac:	f80c ef01 	strb.w	lr, [ip, #1]!
100015b0:	d021      	beq.n	100015f6 <_ntoa_format+0xa6>
100015b2:	2c20      	cmp	r4, #32
100015b4:	d1f8      	bne.n	100015a8 <_ntoa_format+0x58>
100015b6:	f017 0f10 	tst.w	r7, #16
100015ba:	d00e      	beq.n	100015da <_ntoa_format+0x8a>
100015bc:	f417 6f80 	tst.w	r7, #1024	@ 0x400
100015c0:	d154      	bne.n	1000166c <_ntoa_format+0x11c>
100015c2:	42a6      	cmp	r6, r4
100015c4:	d063      	beq.n	1000168e <_ntoa_format+0x13e>
100015c6:	42a5      	cmp	r5, r4
100015c8:	d061      	beq.n	1000168e <_ntoa_format+0x13e>
100015ca:	f1b9 0f10 	cmp.w	r9, #16
100015ce:	d050      	beq.n	10001672 <_ntoa_format+0x122>
100015d0:	f1b9 0f02 	cmp.w	r9, #2
100015d4:	d056      	beq.n	10001684 <_ntoa_format+0x134>
100015d6:	2c20      	cmp	r4, #32
100015d8:	d129      	bne.n	1000162e <_ntoa_format+0xde>
100015da:	2420      	movs	r4, #32
100015dc:	e9cd 570b 	strd	r5, r7, [sp, #44]	@ 0x2c
100015e0:	e9cd 8409 	strd	r8, r4, [sp, #36]	@ 0x24
100015e4:	e8bd 4ff0 	ldmia.w	sp!, {r4, r5, r6, r7, r8, r9, sl, fp, lr}
100015e8:	f7ff bf64 	b.w	100014b4 <_out_rev>
100015ec:	f017 0b01 	ands.w	fp, r7, #1
100015f0:	d134      	bne.n	1000165c <_ntoa_format+0x10c>
100015f2:	42b4      	cmp	r4, r6
100015f4:	d3bf      	bcc.n	10001576 <_ntoa_format+0x26>
100015f6:	f017 0f10 	tst.w	r7, #16
100015fa:	d01e      	beq.n	1000163a <_ntoa_format+0xea>
100015fc:	f417 6f80 	tst.w	r7, #1024	@ 0x400
10001600:	d1e3      	bne.n	100015ca <_ntoa_format+0x7a>
10001602:	2c00      	cmp	r4, #0
10001604:	d1dd      	bne.n	100015c2 <_ntoa_format+0x72>
10001606:	f1b9 0f10 	cmp.w	r9, #16
1000160a:	d063      	beq.n	100016d4 <_ntoa_format+0x184>
1000160c:	f1b9 0f02 	cmp.w	r9, #2
10001610:	d077      	beq.n	10001702 <_ntoa_format+0x1b2>
10001612:	2430      	movs	r4, #48	@ 0x30
10001614:	f888 4000 	strb.w	r4, [r8]
10001618:	2401      	movs	r4, #1
1000161a:	f1ba 0f00 	cmp.w	sl, #0
1000161e:	d111      	bne.n	10001644 <_ntoa_format+0xf4>
10001620:	077e      	lsls	r6, r7, #29
10001622:	d548      	bpl.n	100016b6 <_ntoa_format+0x166>
10001624:	262b      	movs	r6, #43	@ 0x2b
10001626:	f808 6004 	strb.w	r6, [r8, r4]
1000162a:	3401      	adds	r4, #1
1000162c:	e7d6      	b.n	100015dc <_ntoa_format+0x8c>
1000162e:	4626      	mov	r6, r4
10001630:	3401      	adds	r4, #1
10001632:	f04f 0c30 	mov.w	ip, #48	@ 0x30
10001636:	f808 c006 	strb.w	ip, [r8, r6]
1000163a:	2c20      	cmp	r4, #32
1000163c:	d0cd      	beq.n	100015da <_ntoa_format+0x8a>
1000163e:	f1ba 0f00 	cmp.w	sl, #0
10001642:	d0ed      	beq.n	10001620 <_ntoa_format+0xd0>
10001644:	262d      	movs	r6, #45	@ 0x2d
10001646:	f808 6004 	strb.w	r6, [r8, r4]
1000164a:	3401      	adds	r4, #1
1000164c:	e9cd 570b 	strd	r5, r7, [sp, #44]	@ 0x2c
10001650:	e9cd 8409 	strd	r8, r4, [sp, #36]	@ 0x24
10001654:	e8bd 4ff0 	ldmia.w	sp!, {r4, r5, r6, r7, r8, r9, sl, fp, lr}
10001658:	f7ff bf2c 	b.w	100014b4 <_out_rev>
1000165c:	f1ba 0f00 	cmp.w	sl, #0
10001660:	d030      	beq.n	100016c4 <_ntoa_format+0x174>
10001662:	42b4      	cmp	r4, r6
10001664:	f105 35ff 	add.w	r5, r5, #4294967295
10001668:	d385      	bcc.n	10001576 <_ntoa_format+0x26>
1000166a:	e795      	b.n	10001598 <_ntoa_format+0x48>
1000166c:	f1b9 0f10 	cmp.w	r9, #16
10001670:	d1b3      	bne.n	100015da <_ntoa_format+0x8a>
10001672:	06be      	lsls	r6, r7, #26
10001674:	d53b      	bpl.n	100016ee <_ntoa_format+0x19e>
10001676:	2c20      	cmp	r4, #32
10001678:	d0af      	beq.n	100015da <_ntoa_format+0x8a>
1000167a:	2658      	movs	r6, #88	@ 0x58
1000167c:	f808 6004 	strb.w	r6, [r8, r4]
10001680:	3401      	adds	r4, #1
10001682:	e7a8      	b.n	100015d6 <_ntoa_format+0x86>
10001684:	2c20      	cmp	r4, #32
10001686:	d0a8      	beq.n	100015da <_ntoa_format+0x8a>
10001688:	4626      	mov	r6, r4
1000168a:	3401      	adds	r4, #1
1000168c:	e007      	b.n	1000169e <_ntoa_format+0x14e>
1000168e:	1e66      	subs	r6, r4, #1
10001690:	d0b9      	beq.n	10001606 <_ntoa_format+0xb6>
10001692:	f1b9 0f10 	cmp.w	r9, #16
10001696:	d036      	beq.n	10001706 <_ntoa_format+0x1b6>
10001698:	f1b9 0f02 	cmp.w	r9, #2
1000169c:	d1c9      	bne.n	10001632 <_ntoa_format+0xe2>
1000169e:	f04f 0c62 	mov.w	ip, #98	@ 0x62
100016a2:	f808 c006 	strb.w	ip, [r8, r6]
100016a6:	e796      	b.n	100015d6 <_ntoa_format+0x86>
100016a8:	f017 0f10 	tst.w	r7, #16
100016ac:	d0c5      	beq.n	1000163a <_ntoa_format+0xea>
100016ae:	f417 6f80 	tst.w	r7, #1024	@ 0x400
100016b2:	d086      	beq.n	100015c2 <_ntoa_format+0x72>
100016b4:	e789      	b.n	100015ca <_ntoa_format+0x7a>
100016b6:	073e      	lsls	r6, r7, #28
100016b8:	d590      	bpl.n	100015dc <_ntoa_format+0x8c>
100016ba:	2620      	movs	r6, #32
100016bc:	f808 6004 	strb.w	r6, [r8, r4]
100016c0:	3401      	adds	r4, #1
100016c2:	e78b      	b.n	100015dc <_ntoa_format+0x8c>
100016c4:	f017 0f0c 	tst.w	r7, #12
100016c8:	d000      	beq.n	100016cc <_ntoa_format+0x17c>
100016ca:	3d01      	subs	r5, #1
100016cc:	42b4      	cmp	r4, r6
100016ce:	f4ff af52 	bcc.w	10001576 <_ntoa_format+0x26>
100016d2:	e761      	b.n	10001598 <_ntoa_format+0x48>
100016d4:	06bc      	lsls	r4, r7, #26
100016d6:	d412      	bmi.n	100016fe <_ntoa_format+0x1ae>
100016d8:	2478      	movs	r4, #120	@ 0x78
100016da:	f888 4000 	strb.w	r4, [r8]
100016de:	2430      	movs	r4, #48	@ 0x30
100016e0:	f888 4001 	strb.w	r4, [r8, #1]
100016e4:	2402      	movs	r4, #2
100016e6:	f1ba 0f00 	cmp.w	sl, #0
100016ea:	d099      	beq.n	10001620 <_ntoa_format+0xd0>
100016ec:	e7aa      	b.n	10001644 <_ntoa_format+0xf4>
100016ee:	2c20      	cmp	r4, #32
100016f0:	f43f af73 	beq.w	100015da <_ntoa_format+0x8a>
100016f4:	2678      	movs	r6, #120	@ 0x78
100016f6:	f808 6004 	strb.w	r6, [r8, r4]
100016fa:	3401      	adds	r4, #1
100016fc:	e76b      	b.n	100015d6 <_ntoa_format+0x86>
100016fe:	2458      	movs	r4, #88	@ 0x58
10001700:	e7eb      	b.n	100016da <_ntoa_format+0x18a>
10001702:	2462      	movs	r4, #98	@ 0x62
10001704:	e7e9      	b.n	100016da <_ntoa_format+0x18a>
10001706:	f017 0f20 	tst.w	r7, #32
1000170a:	f1a4 0c02 	sub.w	ip, r4, #2
1000170e:	d004      	beq.n	1000171a <_ntoa_format+0x1ca>
10001710:	f04f 0e58 	mov.w	lr, #88	@ 0x58
10001714:	f808 e00c 	strb.w	lr, [r8, ip]
10001718:	e78b      	b.n	10001632 <_ntoa_format+0xe2>
1000171a:	f04f 0e78 	mov.w	lr, #120	@ 0x78
1000171e:	f808 e00c 	strb.w	lr, [r8, ip]
10001722:	e786      	b.n	10001632 <_ntoa_format+0xe2>

10001724 <_out_char>:
10001724:	b900      	cbnz	r0, 10001728 <_out_char+0x4>
10001726:	4770      	bx	lr
10001728:	f001 bb70 	b.w	10002e0c <__wrap_putchar>

1000172c <_out_fct>:
1000172c:	b110      	cbz	r0, 10001734 <_out_fct+0x8>
1000172e:	e9d1 3100 	ldrd	r3, r1, [r1]
10001732:	4718      	bx	r3
10001734:	4770      	bx	lr
10001736:	bf00      	nop

10001738 <_ftoa>:
10001738:	e92d 4ff0 	stmdb	sp!, {r4, r5, r6, r7, r8, r9, sl, fp, lr}
1000173c:	b097      	sub	sp, #92	@ 0x5c
1000173e:	ed9d 7b20 	vldr	d7, [sp, #128]	@ 0x80
10001742:	e9dd 5b22 	ldrd	r5, fp, [sp, #136]	@ 0x88
10001746:	4607      	mov	r7, r0
10001748:	4688      	mov	r8, r1
1000174a:	ec51 0b17 	vmov	r0, r1, d7
1000174e:	9c24      	ldr	r4, [sp, #144]	@ 0x90
10001750:	4699      	mov	r9, r3
10001752:	920c      	str	r2, [sp, #48]	@ 0x30
10001754:	460b      	mov	r3, r1
10001756:	4602      	mov	r2, r0
10001758:	ed8d 7b04 	vstr	d7, [sp, #16]
1000175c:	9407      	str	r4, [sp, #28]
1000175e:	f7ff fe35 	bl	100013cc <__wrap___aeabi_dcmpun>
10001762:	2800      	cmp	r0, #0
10001764:	f040 81f4 	bne.w	10001b50 <_ftoa+0x418>
10001768:	e9dd 0104 	ldrd	r0, r1, [sp, #16]
1000176c:	f04f 32ff 	mov.w	r2, #4294967295
10001770:	f46f 1380 	mvn.w	r3, #1048576	@ 0x100000
10001774:	f7ff fe3c 	bl	100013f0 <__wrap___aeabi_dcmplt>
10001778:	2800      	cmp	r0, #0
1000177a:	f040 811b 	bne.w	100019b4 <_ftoa+0x27c>
1000177e:	e9dd 0104 	ldrd	r0, r1, [sp, #16]
10001782:	f04f 32ff 	mov.w	r2, #4294967295
10001786:	4bac      	ldr	r3, [pc, #688]	@ (10001a38 <_ftoa+0x300>)
10001788:	f7ff fe6e 	bl	10001468 <__wrap___aeabi_dcmpgt>
1000178c:	2800      	cmp	r0, #0
1000178e:	f040 80ee 	bne.w	1000196e <_ftoa+0x236>
10001792:	e9dd 0104 	ldrd	r0, r1, [sp, #16]
10001796:	a3a4      	add	r3, pc, #656	@ (adr r3, 10001a28 <_ftoa+0x2f0>)
10001798:	e9d3 2300 	ldrd	r2, r3, [r3]
1000179c:	f7ff fe64 	bl	10001468 <__wrap___aeabi_dcmpgt>
100017a0:	2800      	cmp	r0, #0
100017a2:	f040 80d3 	bne.w	1000194c <_ftoa+0x214>
100017a6:	e9dd 0104 	ldrd	r0, r1, [sp, #16]
100017aa:	a3a1      	add	r3, pc, #644	@ (adr r3, 10001a30 <_ftoa+0x2f8>)
100017ac:	e9d3 2300 	ldrd	r2, r3, [r3]
100017b0:	f7ff fe1e 	bl	100013f0 <__wrap___aeabi_dcmplt>
100017b4:	2800      	cmp	r0, #0
100017b6:	f040 80c9 	bne.w	1000194c <_ftoa+0x214>
100017ba:	e9dd 0104 	ldrd	r0, r1, [sp, #16]
100017be:	2200      	movs	r2, #0
100017c0:	2300      	movs	r3, #0
100017c2:	f7ff fe15 	bl	100013f0 <__wrap___aeabi_dcmplt>
100017c6:	2800      	cmp	r0, #0
100017c8:	f040 80e8 	bne.w	1000199c <_ftoa+0x264>
100017cc:	4623      	mov	r3, r4
100017ce:	900d      	str	r0, [sp, #52]	@ 0x34
100017d0:	f413 6f80 	tst.w	r3, #1024	@ 0x400
100017d4:	bf08      	it	eq
100017d6:	2506      	moveq	r5, #6
100017d8:	2130      	movs	r1, #48	@ 0x30
100017da:	462b      	mov	r3, r5
100017dc:	aa0e      	add	r2, sp, #56	@ 0x38
100017de:	f1a5 0620 	sub.w	r6, r5, #32
100017e2:	e005      	b.n	100017f0 <_ftoa+0xb8>
100017e4:	3b01      	subs	r3, #1
100017e6:	42b3      	cmp	r3, r6
100017e8:	f802 1b01 	strb.w	r1, [r2], #1
100017ec:	f000 8193 	beq.w	10001b16 <_ftoa+0x3de>
100017f0:	2b09      	cmp	r3, #9
100017f2:	d8f7      	bhi.n	100017e4 <_ftoa+0xac>
100017f4:	461e      	mov	r6, r3
100017f6:	1aed      	subs	r5, r5, r3
100017f8:	e9dd 0104 	ldrd	r0, r1, [sp, #16]
100017fc:	f7ff fdc2 	bl	10001384 <__wrap___aeabi_d2iz>
10001800:	4b8e      	ldr	r3, [pc, #568]	@ (10001a3c <_ftoa+0x304>)
10001802:	4604      	mov	r4, r0
10001804:	eb03 03c6 	add.w	r3, r3, r6, lsl #3
10001808:	ed93 7b00 	vldr	d7, [r3]
1000180c:	ed8d 7b08 	vstr	d7, [sp, #32]
10001810:	f7ff fd94 	bl	1000133c <__wrap___aeabi_i2d>
10001814:	4602      	mov	r2, r0
10001816:	460b      	mov	r3, r1
10001818:	e9dd 0104 	ldrd	r0, r1, [sp, #16]
1000181c:	f7ff fcf8 	bl	10001210 <__wrap___aeabi_dsub>
10001820:	e9dd 2308 	ldrd	r2, r3, [sp, #32]
10001824:	f7ff fd08 	bl	10001238 <__wrap___aeabi_dmul>
10001828:	4602      	mov	r2, r0
1000182a:	460b      	mov	r3, r1
1000182c:	e9cd 230a 	strd	r2, r3, [sp, #40]	@ 0x28
10001830:	f7ff fdba 	bl	100013a8 <__wrap___aeabi_d2uiz>
10001834:	4682      	mov	sl, r0
10001836:	f7ff fd93 	bl	10001360 <__wrap___aeabi_ui2d>
1000183a:	4602      	mov	r2, r0
1000183c:	460b      	mov	r3, r1
1000183e:	e9dd 010a 	ldrd	r0, r1, [sp, #40]	@ 0x28
10001842:	f7ff fce5 	bl	10001210 <__wrap___aeabi_dsub>
10001846:	4602      	mov	r2, r0
10001848:	460b      	mov	r3, r1
1000184a:	e9cd 230a 	strd	r2, r3, [sp, #40]	@ 0x28
1000184e:	2200      	movs	r2, #0
10001850:	4b7b      	ldr	r3, [pc, #492]	@ (10001a40 <_ftoa+0x308>)
10001852:	f7ff fe09 	bl	10001468 <__wrap___aeabi_dcmpgt>
10001856:	2800      	cmp	r0, #0
10001858:	f000 80fe 	beq.w	10001a58 <_ftoa+0x320>
1000185c:	f10a 0a01 	add.w	sl, sl, #1
10001860:	4650      	mov	r0, sl
10001862:	f7ff fd7d 	bl	10001360 <__wrap___aeabi_ui2d>
10001866:	4602      	mov	r2, r0
10001868:	460b      	mov	r3, r1
1000186a:	e9dd 0108 	ldrd	r0, r1, [sp, #32]
1000186e:	f7ff fdd3 	bl	10001418 <__wrap___aeabi_dcmple>
10001872:	b110      	cbz	r0, 1000187a <_ftoa+0x142>
10001874:	f04f 0a00 	mov.w	sl, #0
10001878:	3401      	adds	r4, #1
1000187a:	2e00      	cmp	r6, #0
1000187c:	f000 80fd 	beq.w	10001a7a <_ftoa+0x342>
10001880:	1e68      	subs	r0, r5, #1
10001882:	ab0e      	add	r3, sp, #56	@ 0x38
10001884:	f8df c1cc 	ldr.w	ip, [pc, #460]	@ 10001a54 <_ftoa+0x31c>
10001888:	4418      	add	r0, r3
1000188a:	e00f      	b.n	100018ac <_ftoa+0x174>
1000188c:	fbac 210a 	umull	r2, r1, ip, sl
10001890:	08c9      	lsrs	r1, r1, #3
10001892:	eb01 0281 	add.w	r2, r1, r1, lsl #2
10001896:	ebaa 0242 	sub.w	r2, sl, r2, lsl #1
1000189a:	3230      	adds	r2, #48	@ 0x30
1000189c:	f1ba 0f09 	cmp.w	sl, #9
100018a0:	f800 2f01 	strb.w	r2, [r0, #1]!
100018a4:	f240 811c 	bls.w	10001ae0 <_ftoa+0x3a8>
100018a8:	468a      	mov	sl, r1
100018aa:	461d      	mov	r5, r3
100018ac:	2d20      	cmp	r5, #32
100018ae:	f105 0301 	add.w	r3, r5, #1
100018b2:	f106 36ff 	add.w	r6, r6, #4294967295
100018b6:	d1e9      	bne.n	1000188c <_ftoa+0x154>
100018b8:	2520      	movs	r5, #32
100018ba:	1e69      	subs	r1, r5, #1
100018bc:	ab0e      	add	r3, sp, #56	@ 0x38
100018be:	4861      	ldr	r0, [pc, #388]	@ (10001a44 <_ftoa+0x30c>)
100018c0:	4419      	add	r1, r3
100018c2:	e010      	b.n	100018e6 <_ftoa+0x1ae>
100018c4:	fb80 6204 	smull	r6, r2, r0, r4
100018c8:	ebc3 03a2 	rsb	r3, r3, r2, asr #2
100018cc:	eb03 0283 	add.w	r2, r3, r3, lsl #2
100018d0:	eba4 0442 	sub.w	r4, r4, r2, lsl #1
100018d4:	f104 0230 	add.w	r2, r4, #48	@ 0x30
100018d8:	3501      	adds	r5, #1
100018da:	461c      	mov	r4, r3
100018dc:	f801 2f01 	strb.w	r2, [r1, #1]!
100018e0:	2b00      	cmp	r3, #0
100018e2:	f000 80eb 	beq.w	10001abc <_ftoa+0x384>
100018e6:	2d20      	cmp	r5, #32
100018e8:	ea4f 73e4 	mov.w	r3, r4, asr #31
100018ec:	d1ea      	bne.n	100018c4 <_ftoa+0x18c>
100018ee:	9b07      	ldr	r3, [sp, #28]
100018f0:	f003 0303 	and.w	r3, r3, #3
100018f4:	2b01      	cmp	r3, #1
100018f6:	d118      	bne.n	1000192a <_ftoa+0x1f2>
100018f8:	f1bb 0f00 	cmp.w	fp, #0
100018fc:	d015      	beq.n	1000192a <_ftoa+0x1f2>
100018fe:	9b0d      	ldr	r3, [sp, #52]	@ 0x34
10001900:	2b00      	cmp	r3, #0
10001902:	f000 810a 	beq.w	10001b1a <_ftoa+0x3e2>
10001906:	f10b 3bff 	add.w	fp, fp, #4294967295
1000190a:	f1bb 0f20 	cmp.w	fp, #32
1000190e:	d90c      	bls.n	1000192a <_ftoa+0x1f2>
10001910:	1e6b      	subs	r3, r5, #1
10001912:	a90e      	add	r1, sp, #56	@ 0x38
10001914:	2230      	movs	r2, #48	@ 0x30
10001916:	440b      	add	r3, r1
10001918:	e005      	b.n	10001926 <_ftoa+0x1ee>
1000191a:	3501      	adds	r5, #1
1000191c:	455d      	cmp	r5, fp
1000191e:	f803 2f01 	strb.w	r2, [r3, #1]!
10001922:	f080 80d1 	bcs.w	10001ac8 <_ftoa+0x390>
10001926:	2d20      	cmp	r5, #32
10001928:	d1f7      	bne.n	1000191a <_ftoa+0x1e2>
1000192a:	9b07      	ldr	r3, [sp, #28]
1000192c:	ac0e      	add	r4, sp, #56	@ 0x38
1000192e:	e9cd b302 	strd	fp, r3, [sp, #8]
10001932:	4641      	mov	r1, r8
10001934:	464b      	mov	r3, r9
10001936:	4638      	mov	r0, r7
10001938:	9a0c      	ldr	r2, [sp, #48]	@ 0x30
1000193a:	9501      	str	r5, [sp, #4]
1000193c:	9400      	str	r4, [sp, #0]
1000193e:	f7ff fdb9 	bl	100014b4 <_out_rev>
10001942:	4682      	mov	sl, r0
10001944:	4650      	mov	r0, sl
10001946:	b017      	add	sp, #92	@ 0x5c
10001948:	e8bd 8ff0 	ldmia.w	sp!, {r4, r5, r6, r7, r8, r9, sl, fp, pc}
1000194c:	9b07      	ldr	r3, [sp, #28]
1000194e:	ed9d 7b04 	vldr	d7, [sp, #16]
10001952:	e9cd b323 	strd	fp, r3, [sp, #140]	@ 0x8c
10001956:	4641      	mov	r1, r8
10001958:	464b      	mov	r3, r9
1000195a:	4638      	mov	r0, r7
1000195c:	9a0c      	ldr	r2, [sp, #48]	@ 0x30
1000195e:	ed8d 7b20 	vstr	d7, [sp, #128]	@ 0x80
10001962:	9522      	str	r5, [sp, #136]	@ 0x88
10001964:	b017      	add	sp, #92	@ 0x5c
10001966:	e8bd 4ff0 	ldmia.w	sp!, {r4, r5, r6, r7, r8, r9, sl, fp, lr}
1000196a:	f000 b945 	b.w	10001bf8 <_etoa>
1000196e:	0761      	lsls	r1, r4, #29
10001970:	4623      	mov	r3, r4
10001972:	bf4c      	ite	mi
10001974:	2304      	movmi	r3, #4
10001976:	2303      	movpl	r3, #3
10001978:	4641      	mov	r1, r8
1000197a:	9321      	str	r3, [sp, #132]	@ 0x84
1000197c:	4638      	mov	r0, r7
1000197e:	464b      	mov	r3, r9
10001980:	9a07      	ldr	r2, [sp, #28]
10001982:	bf48      	it	mi
10001984:	4c30      	ldrmi	r4, [pc, #192]	@ (10001a48 <_ftoa+0x310>)
10001986:	e9cd b222 	strd	fp, r2, [sp, #136]	@ 0x88
1000198a:	bf58      	it	pl
1000198c:	4c2f      	ldrpl	r4, [pc, #188]	@ (10001a4c <_ftoa+0x314>)
1000198e:	9a0c      	ldr	r2, [sp, #48]	@ 0x30
10001990:	9420      	str	r4, [sp, #128]	@ 0x80
10001992:	b017      	add	sp, #92	@ 0x5c
10001994:	e8bd 4ff0 	ldmia.w	sp!, {r4, r5, r6, r7, r8, r9, sl, fp, lr}
10001998:	f7ff bd8c 	b.w	100014b4 <_out_rev>
1000199c:	e9dd 2304 	ldrd	r2, r3, [sp, #16]
100019a0:	2000      	movs	r0, #0
100019a2:	2100      	movs	r1, #0
100019a4:	f7ff fc34 	bl	10001210 <__wrap___aeabi_dsub>
100019a8:	2301      	movs	r3, #1
100019aa:	e9cd 0104 	strd	r0, r1, [sp, #16]
100019ae:	930d      	str	r3, [sp, #52]	@ 0x34
100019b0:	4623      	mov	r3, r4
100019b2:	e70d      	b.n	100017d0 <_ftoa+0x98>
100019b4:	4623      	mov	r3, r4
100019b6:	079c      	lsls	r4, r3, #30
100019b8:	f040 80aa 	bne.w	10001b10 <_ftoa+0x3d8>
100019bc:	f1bb 0f04 	cmp.w	fp, #4
100019c0:	f240 80a6 	bls.w	10001b10 <_ftoa+0x3d8>
100019c4:	9b0c      	ldr	r3, [sp, #48]	@ 0x30
100019c6:	461d      	mov	r5, r3
100019c8:	1f1c      	subs	r4, r3, #4
100019ca:	eb04 0a0b 	add.w	sl, r4, fp
100019ce:	462a      	mov	r2, r5
100019d0:	464b      	mov	r3, r9
100019d2:	4641      	mov	r1, r8
100019d4:	2020      	movs	r0, #32
100019d6:	3501      	adds	r5, #1
100019d8:	47b8      	blx	r7
100019da:	45aa      	cmp	sl, r5
100019dc:	d1f7      	bne.n	100019ce <_ftoa+0x296>
100019de:	4655      	mov	r5, sl
100019e0:	4c1b      	ldr	r4, [pc, #108]	@ (10001a50 <_ftoa+0x318>)
100019e2:	1f26      	subs	r6, r4, #4
100019e4:	f814 0d01 	ldrb.w	r0, [r4, #-1]!
100019e8:	462a      	mov	r2, r5
100019ea:	464b      	mov	r3, r9
100019ec:	4641      	mov	r1, r8
100019ee:	47b8      	blx	r7
100019f0:	42b4      	cmp	r4, r6
100019f2:	f105 0501 	add.w	r5, r5, #1
100019f6:	d1f5      	bne.n	100019e4 <_ftoa+0x2ac>
100019f8:	9b07      	ldr	r3, [sp, #28]
100019fa:	f10a 0a04 	add.w	sl, sl, #4
100019fe:	0798      	lsls	r0, r3, #30
10001a00:	d5a0      	bpl.n	10001944 <_ftoa+0x20c>
10001a02:	9c0c      	ldr	r4, [sp, #48]	@ 0x30
10001a04:	ebaa 0304 	sub.w	r3, sl, r4
10001a08:	459b      	cmp	fp, r3
10001a0a:	d99b      	bls.n	10001944 <_ftoa+0x20c>
10001a0c:	4652      	mov	r2, sl
10001a0e:	464b      	mov	r3, r9
10001a10:	4641      	mov	r1, r8
10001a12:	2020      	movs	r0, #32
10001a14:	f10a 0a01 	add.w	sl, sl, #1
10001a18:	47b8      	blx	r7
10001a1a:	ebaa 0304 	sub.w	r3, sl, r4
10001a1e:	455b      	cmp	r3, fp
10001a20:	d3f4      	bcc.n	10001a0c <_ftoa+0x2d4>
10001a22:	e78f      	b.n	10001944 <_ftoa+0x20c>
10001a24:	f3af 8000 	nop.w
10001a28:	00000000 	.word	0x00000000
10001a2c:	41cdcd65 	.word	0x41cdcd65
10001a30:	00000000 	.word	0x00000000
10001a34:	c1cdcd65 	.word	0xc1cdcd65
10001a38:	7fefffff 	.word	0x7fefffff
10001a3c:	100059d0 	.word	0x100059d0
10001a40:	3fe00000 	.word	0x3fe00000
10001a44:	66666667 	.word	0x66666667
10001a48:	10005948 	.word	0x10005948
10001a4c:	10005950 	.word	0x10005950
10001a50:	1000595c 	.word	0x1000595c
10001a54:	cccccccd 	.word	0xcccccccd
10001a58:	2200      	movs	r2, #0
10001a5a:	e9dd 010a 	ldrd	r0, r1, [sp, #40]	@ 0x28
10001a5e:	4b63      	ldr	r3, [pc, #396]	@ (10001bec <_ftoa+0x4b4>)
10001a60:	f7ff fcc6 	bl	100013f0 <__wrap___aeabi_dcmplt>
10001a64:	2800      	cmp	r0, #0
10001a66:	f47f af08 	bne.w	1000187a <_ftoa+0x142>
10001a6a:	f1ba 0f00 	cmp.w	sl, #0
10001a6e:	d16a      	bne.n	10001b46 <_ftoa+0x40e>
10001a70:	f10a 0a01 	add.w	sl, sl, #1
10001a74:	2e00      	cmp	r6, #0
10001a76:	f47f af03 	bne.w	10001880 <_ftoa+0x148>
10001a7a:	4620      	mov	r0, r4
10001a7c:	f7ff fc5e 	bl	1000133c <__wrap___aeabi_i2d>
10001a80:	4602      	mov	r2, r0
10001a82:	460b      	mov	r3, r1
10001a84:	e9dd 0104 	ldrd	r0, r1, [sp, #16]
10001a88:	f7ff fbc2 	bl	10001210 <__wrap___aeabi_dsub>
10001a8c:	4602      	mov	r2, r0
10001a8e:	460b      	mov	r3, r1
10001a90:	e9cd 2304 	strd	r2, r3, [sp, #16]
10001a94:	2200      	movs	r2, #0
10001a96:	4b55      	ldr	r3, [pc, #340]	@ (10001bec <_ftoa+0x4b4>)
10001a98:	f7ff fcaa 	bl	100013f0 <__wrap___aeabi_dcmplt>
10001a9c:	2800      	cmp	r0, #0
10001a9e:	f47f af0c 	bne.w	100018ba <_ftoa+0x182>
10001aa2:	e9dd 0104 	ldrd	r0, r1, [sp, #16]
10001aa6:	2200      	movs	r2, #0
10001aa8:	4b50      	ldr	r3, [pc, #320]	@ (10001bec <_ftoa+0x4b4>)
10001aaa:	f7ff fcdd 	bl	10001468 <__wrap___aeabi_dcmpgt>
10001aae:	2800      	cmp	r0, #0
10001ab0:	f47f af03 	bne.w	100018ba <_ftoa+0x182>
10001ab4:	3401      	adds	r4, #1
10001ab6:	f024 0401 	bic.w	r4, r4, #1
10001aba:	e6fe      	b.n	100018ba <_ftoa+0x182>
10001abc:	9b07      	ldr	r3, [sp, #28]
10001abe:	f003 0303 	and.w	r3, r3, #3
10001ac2:	2b01      	cmp	r3, #1
10001ac4:	f000 8082 	beq.w	10001bcc <_ftoa+0x494>
10001ac8:	2d20      	cmp	r5, #32
10001aca:	f43f af2e 	beq.w	1000192a <_ftoa+0x1f2>
10001ace:	9b0d      	ldr	r3, [sp, #52]	@ 0x34
10001ad0:	b37b      	cbz	r3, 10001b32 <_ftoa+0x3fa>
10001ad2:	222d      	movs	r2, #45	@ 0x2d
10001ad4:	eb0d 0305 	add.w	r3, sp, r5
10001ad8:	f883 2038 	strb.w	r2, [r3, #56]	@ 0x38
10001adc:	3501      	adds	r5, #1
10001ade:	e724      	b.n	1000192a <_ftoa+0x1f2>
10001ae0:	2b20      	cmp	r3, #32
10001ae2:	f43f aee9 	beq.w	100018b8 <_ftoa+0x180>
10001ae6:	aa0e      	add	r2, sp, #56	@ 0x38
10001ae8:	4415      	add	r5, r2
10001aea:	441e      	add	r6, r3
10001aec:	2230      	movs	r2, #48	@ 0x30
10001aee:	e004      	b.n	10001afa <_ftoa+0x3c2>
10001af0:	2b20      	cmp	r3, #32
10001af2:	f805 2f01 	strb.w	r2, [r5, #1]!
10001af6:	f43f aedf 	beq.w	100018b8 <_ftoa+0x180>
10001afa:	429e      	cmp	r6, r3
10001afc:	f103 0301 	add.w	r3, r3, #1
10001b00:	d1f6      	bne.n	10001af0 <_ftoa+0x3b8>
10001b02:	222e      	movs	r2, #46	@ 0x2e
10001b04:	eb0d 0306 	add.w	r3, sp, r6
10001b08:	f883 2038 	strb.w	r2, [r3, #56]	@ 0x38
10001b0c:	1c75      	adds	r5, r6, #1
10001b0e:	e6d4      	b.n	100018ba <_ftoa+0x182>
10001b10:	f8dd a030 	ldr.w	sl, [sp, #48]	@ 0x30
10001b14:	e763      	b.n	100019de <_ftoa+0x2a6>
10001b16:	2520      	movs	r5, #32
10001b18:	e66e      	b.n	100017f8 <_ftoa+0xc0>
10001b1a:	9b07      	ldr	r3, [sp, #28]
10001b1c:	f013 0f0c 	tst.w	r3, #12
10001b20:	d050      	beq.n	10001bc4 <_ftoa+0x48c>
10001b22:	f10b 3bff 	add.w	fp, fp, #4294967295
10001b26:	45ab      	cmp	fp, r5
10001b28:	f63f aef2 	bhi.w	10001910 <_ftoa+0x1d8>
10001b2c:	2d20      	cmp	r5, #32
10001b2e:	f43f aefc 	beq.w	1000192a <_ftoa+0x1f2>
10001b32:	9b07      	ldr	r3, [sp, #28]
10001b34:	075a      	lsls	r2, r3, #29
10001b36:	d501      	bpl.n	10001b3c <_ftoa+0x404>
10001b38:	222b      	movs	r2, #43	@ 0x2b
10001b3a:	e7cb      	b.n	10001ad4 <_ftoa+0x39c>
10001b3c:	071b      	lsls	r3, r3, #28
10001b3e:	f57f aef4 	bpl.w	1000192a <_ftoa+0x1f2>
10001b42:	2220      	movs	r2, #32
10001b44:	e7c6      	b.n	10001ad4 <_ftoa+0x39c>
10001b46:	f01a 0f01 	tst.w	sl, #1
10001b4a:	f43f ae96 	beq.w	1000187a <_ftoa+0x142>
10001b4e:	e78f      	b.n	10001a70 <_ftoa+0x338>
10001b50:	07a6      	lsls	r6, r4, #30
10001b52:	d134      	bne.n	10001bbe <_ftoa+0x486>
10001b54:	f1bb 0f03 	cmp.w	fp, #3
10001b58:	d931      	bls.n	10001bbe <_ftoa+0x486>
10001b5a:	9b0c      	ldr	r3, [sp, #48]	@ 0x30
10001b5c:	461d      	mov	r5, r3
10001b5e:	1edc      	subs	r4, r3, #3
10001b60:	eb04 0a0b 	add.w	sl, r4, fp
10001b64:	462a      	mov	r2, r5
10001b66:	464b      	mov	r3, r9
10001b68:	4641      	mov	r1, r8
10001b6a:	2020      	movs	r0, #32
10001b6c:	3501      	adds	r5, #1
10001b6e:	47b8      	blx	r7
10001b70:	4555      	cmp	r5, sl
10001b72:	d1f7      	bne.n	10001b64 <_ftoa+0x42c>
10001b74:	4655      	mov	r5, sl
10001b76:	4c1e      	ldr	r4, [pc, #120]	@ (10001bf0 <_ftoa+0x4b8>)
10001b78:	1ee6      	subs	r6, r4, #3
10001b7a:	f814 0d01 	ldrb.w	r0, [r4, #-1]!
10001b7e:	462a      	mov	r2, r5
10001b80:	464b      	mov	r3, r9
10001b82:	4641      	mov	r1, r8
10001b84:	47b8      	blx	r7
10001b86:	42a6      	cmp	r6, r4
10001b88:	f105 0501 	add.w	r5, r5, #1
10001b8c:	d1f5      	bne.n	10001b7a <_ftoa+0x442>
10001b8e:	9b07      	ldr	r3, [sp, #28]
10001b90:	f10a 0a03 	add.w	sl, sl, #3
10001b94:	079d      	lsls	r5, r3, #30
10001b96:	f57f aed5 	bpl.w	10001944 <_ftoa+0x20c>
10001b9a:	9c0c      	ldr	r4, [sp, #48]	@ 0x30
10001b9c:	ebaa 0304 	sub.w	r3, sl, r4
10001ba0:	459b      	cmp	fp, r3
10001ba2:	f67f aecf 	bls.w	10001944 <_ftoa+0x20c>
10001ba6:	4652      	mov	r2, sl
10001ba8:	464b      	mov	r3, r9
10001baa:	4641      	mov	r1, r8
10001bac:	2020      	movs	r0, #32
10001bae:	f10a 0a01 	add.w	sl, sl, #1
10001bb2:	47b8      	blx	r7
10001bb4:	ebaa 0304 	sub.w	r3, sl, r4
10001bb8:	459b      	cmp	fp, r3
10001bba:	d8f4      	bhi.n	10001ba6 <_ftoa+0x46e>
10001bbc:	e6c2      	b.n	10001944 <_ftoa+0x20c>
10001bbe:	f8dd a030 	ldr.w	sl, [sp, #48]	@ 0x30
10001bc2:	e7d7      	b.n	10001b74 <_ftoa+0x43c>
10001bc4:	45ab      	cmp	fp, r5
10001bc6:	f63f aea3 	bhi.w	10001910 <_ftoa+0x1d8>
10001bca:	e6ae      	b.n	1000192a <_ftoa+0x1f2>
10001bcc:	f1bb 0f00 	cmp.w	fp, #0
10001bd0:	f43f af7a 	beq.w	10001ac8 <_ftoa+0x390>
10001bd4:	9b0d      	ldr	r3, [sp, #52]	@ 0x34
10001bd6:	2b00      	cmp	r3, #0
10001bd8:	d09f      	beq.n	10001b1a <_ftoa+0x3e2>
10001bda:	f10b 3bff 	add.w	fp, fp, #4294967295
10001bde:	455d      	cmp	r5, fp
10001be0:	f4ff ae96 	bcc.w	10001910 <_ftoa+0x1d8>
10001be4:	2d20      	cmp	r5, #32
10001be6:	f47f af74 	bne.w	10001ad2 <_ftoa+0x39a>
10001bea:	e69e      	b.n	1000192a <_ftoa+0x1f2>
10001bec:	3fe00000 	.word	0x3fe00000
10001bf0:	10005957 	.word	0x10005957
10001bf4:	00000000 	.word	0x00000000

10001bf8 <_etoa>:
10001bf8:	e92d 4ff0 	stmdb	sp!, {r4, r5, r6, r7, r8, r9, sl, fp, lr}
10001bfc:	b09f      	sub	sp, #124	@ 0x7c
10001bfe:	9e2a      	ldr	r6, [sp, #168]	@ 0xa8
10001c00:	e9dd 4528 	ldrd	r4, r5, [sp, #160]	@ 0xa0
10001c04:	4607      	mov	r7, r0
10001c06:	4693      	mov	fp, r2
10001c08:	9108      	str	r1, [sp, #32]
10001c0a:	9309      	str	r3, [sp, #36]	@ 0x24
10001c0c:	4622      	mov	r2, r4
10001c0e:	462b      	mov	r3, r5
10001c10:	4620      	mov	r0, r4
10001c12:	4629      	mov	r1, r5
10001c14:	960e      	str	r6, [sp, #56]	@ 0x38
10001c16:	e9dd a62b 	ldrd	sl, r6, [sp, #172]	@ 0xac
10001c1a:	f7ff fbd7 	bl	100013cc <__wrap___aeabi_dcmpun>
10001c1e:	2800      	cmp	r0, #0
10001c20:	f040 80be 	bne.w	10001da0 <_etoa+0x1a8>
10001c24:	4620      	mov	r0, r4
10001c26:	4629      	mov	r1, r5
10001c28:	f04f 32ff 	mov.w	r2, #4294967295
10001c2c:	4b78      	ldr	r3, [pc, #480]	@ (10001e10 <_etoa+0x218>)
10001c2e:	f7ff fc1b 	bl	10001468 <__wrap___aeabi_dcmpgt>
10001c32:	2800      	cmp	r0, #0
10001c34:	f040 80b4 	bne.w	10001da0 <_etoa+0x1a8>
10001c38:	4620      	mov	r0, r4
10001c3a:	4629      	mov	r1, r5
10001c3c:	f04f 32ff 	mov.w	r2, #4294967295
10001c40:	f46f 1380 	mvn.w	r3, #1048576	@ 0x100000
10001c44:	f7ff fbd4 	bl	100013f0 <__wrap___aeabi_dcmplt>
10001c48:	2800      	cmp	r0, #0
10001c4a:	f040 80a9 	bne.w	10001da0 <_etoa+0x1a8>
10001c4e:	4620      	mov	r0, r4
10001c50:	4629      	mov	r1, r5
10001c52:	2200      	movs	r2, #0
10001c54:	2300      	movs	r3, #0
10001c56:	f7ff fbcb 	bl	100013f0 <__wrap___aeabi_dcmplt>
10001c5a:	2800      	cmp	r0, #0
10001c5c:	f040 81d5 	bne.w	1000200a <_etoa+0x412>
10001c60:	e9cd 450a 	strd	r4, r5, [sp, #40]	@ 0x28
10001c64:	e9dd 230a 	ldrd	r2, r3, [sp, #40]	@ 0x28
10001c68:	4690      	mov	r8, r2
10001c6a:	4699      	mov	r9, r3
10001c6c:	f406 6200 	and.w	r2, r6, #2048	@ 0x800
10001c70:	f416 6380 	ands.w	r3, r6, #1024	@ 0x400
10001c74:	920f      	str	r2, [sp, #60]	@ 0x3c
10001c76:	9313      	str	r3, [sp, #76]	@ 0x4c
10001c78:	f040 80a1 	bne.w	10001dbe <_etoa+0x1c6>
10001c7c:	ea58 0309 	orrs.w	r3, r8, r9
10001c80:	f040 80ca 	bne.w	10001e18 <_etoa+0x220>
10001c84:	2a00      	cmp	r2, #0
10001c86:	f040 81e3 	bne.w	10002050 <_etoa+0x458>
10001c8a:	2306      	movs	r3, #6
10001c8c:	930e      	str	r3, [sp, #56]	@ 0x38
10001c8e:	f016 0202 	ands.w	r2, r6, #2
10001c92:	9210      	str	r2, [sp, #64]	@ 0x40
10001c94:	f040 81d4 	bne.w	10002040 <_etoa+0x448>
10001c98:	4653      	mov	r3, sl
10001c9a:	2b04      	cmp	r3, #4
10001c9c:	bf38      	it	cc
10001c9e:	2304      	movcc	r3, #4
10001ca0:	920c      	str	r2, [sp, #48]	@ 0x30
10001ca2:	2204      	movs	r2, #4
10001ca4:	3b04      	subs	r3, #4
10001ca6:	9212      	str	r2, [sp, #72]	@ 0x48
10001ca8:	930f      	str	r3, [sp, #60]	@ 0x3c
10001caa:	4620      	mov	r0, r4
10001cac:	4629      	mov	r1, r5
10001cae:	2200      	movs	r2, #0
10001cb0:	2300      	movs	r3, #0
10001cb2:	f7ff fb9d 	bl	100013f0 <__wrap___aeabi_dcmplt>
10001cb6:	2800      	cmp	r0, #0
10001cb8:	f040 81f3 	bne.w	100020a2 <_etoa+0x4aa>
10001cbc:	ed9d 7b0a 	vldr	d7, [sp, #40]	@ 0x28
10001cc0:	9b0f      	ldr	r3, [sp, #60]	@ 0x3c
10001cc2:	465a      	mov	r2, fp
10001cc4:	9303      	str	r3, [sp, #12]
10001cc6:	9b0e      	ldr	r3, [sp, #56]	@ 0x38
10001cc8:	ed8d 7b00 	vstr	d7, [sp]
10001ccc:	9302      	str	r3, [sp, #8]
10001cce:	f426 6300 	bic.w	r3, r6, #2048	@ 0x800
10001cd2:	9304      	str	r3, [sp, #16]
10001cd4:	4638      	mov	r0, r7
10001cd6:	9b09      	ldr	r3, [sp, #36]	@ 0x24
10001cd8:	9908      	ldr	r1, [sp, #32]
10001cda:	f7ff fd2d 	bl	10001738 <_ftoa>
10001cde:	4602      	mov	r2, r0
10001ce0:	f016 0f20 	tst.w	r6, #32
10001ce4:	9b09      	ldr	r3, [sp, #36]	@ 0x24
10001ce6:	9908      	ldr	r1, [sp, #32]
10001ce8:	bf0c      	ite	eq
10001cea:	2065      	moveq	r0, #101	@ 0x65
10001cec:	2045      	movne	r0, #69	@ 0x45
10001cee:	f102 0801 	add.w	r8, r2, #1
10001cf2:	47b8      	blx	r7
10001cf4:	9a0c      	ldr	r2, [sp, #48]	@ 0x30
10001cf6:	9b12      	ldr	r3, [sp, #72]	@ 0x48
10001cf8:	ac16      	add	r4, sp, #88	@ 0x58
10001cfa:	1e5d      	subs	r5, r3, #1
10001cfc:	ea82 73e2 	eor.w	r3, r2, r2, asr #31
10001d00:	eba3 73e2 	sub.w	r3, r3, r2, asr #31
10001d04:	0fd1      	lsrs	r1, r2, #31
10001d06:	2600      	movs	r6, #0
10001d08:	4622      	mov	r2, r4
10001d0a:	4699      	mov	r9, r3
10001d0c:	f8df c104 	ldr.w	ip, [pc, #260]	@ 10001e14 <_etoa+0x21c>
10001d10:	e001      	b.n	10001d16 <_etoa+0x11e>
10001d12:	2e20      	cmp	r6, #32
10001d14:	d010      	beq.n	10001d38 <_etoa+0x140>
10001d16:	46ce      	mov	lr, r9
10001d18:	fbac 3009 	umull	r3, r0, ip, r9
10001d1c:	08c0      	lsrs	r0, r0, #3
10001d1e:	eb00 0380 	add.w	r3, r0, r0, lsl #2
10001d22:	eba9 0343 	sub.w	r3, r9, r3, lsl #1
10001d26:	3330      	adds	r3, #48	@ 0x30
10001d28:	f1be 0f09 	cmp.w	lr, #9
10001d2c:	4681      	mov	r9, r0
10001d2e:	f106 0601 	add.w	r6, r6, #1
10001d32:	f802 3b01 	strb.w	r3, [r2], #1
10001d36:	d8ec      	bhi.n	10001d12 <_etoa+0x11a>
10001d38:	2305      	movs	r3, #5
10001d3a:	2000      	movs	r0, #0
10001d3c:	9306      	str	r3, [sp, #24]
10001d3e:	230a      	movs	r3, #10
10001d40:	9505      	str	r5, [sp, #20]
10001d42:	9400      	str	r4, [sp, #0]
10001d44:	9d09      	ldr	r5, [sp, #36]	@ 0x24
10001d46:	9c08      	ldr	r4, [sp, #32]
10001d48:	4642      	mov	r2, r8
10001d4a:	e9cd 3003 	strd	r3, r0, [sp, #12]
10001d4e:	e9cd 6101 	strd	r6, r1, [sp, #4]
10001d52:	462b      	mov	r3, r5
10001d54:	4621      	mov	r1, r4
10001d56:	4638      	mov	r0, r7
10001d58:	f7ff fbfa 	bl	10001550 <_ntoa_format>
10001d5c:	9a10      	ldr	r2, [sp, #64]	@ 0x40
10001d5e:	4680      	mov	r8, r0
10001d60:	b1d2      	cbz	r2, 10001d98 <_etoa+0x1a0>
10001d62:	eba0 060b 	sub.w	r6, r0, fp
10001d66:	45b2      	cmp	sl, r6
10001d68:	d916      	bls.n	10001d98 <_etoa+0x1a0>
10001d6a:	eb0b 0206 	add.w	r2, fp, r6
10001d6e:	462b      	mov	r3, r5
10001d70:	4621      	mov	r1, r4
10001d72:	2020      	movs	r0, #32
10001d74:	3601      	adds	r6, #1
10001d76:	47b8      	blx	r7
10001d78:	45b2      	cmp	sl, r6
10001d7a:	d8f6      	bhi.n	10001d6a <_etoa+0x172>
10001d7c:	f10b 33ff 	add.w	r3, fp, #4294967295
10001d80:	4453      	add	r3, sl
10001d82:	f1cb 0201 	rsb	r2, fp, #1
10001d86:	eba3 0308 	sub.w	r3, r3, r8
10001d8a:	4442      	add	r2, r8
10001d8c:	4592      	cmp	sl, r2
10001d8e:	bf38      	it	cc
10001d90:	2300      	movcc	r3, #0
10001d92:	f108 0801 	add.w	r8, r8, #1
10001d96:	4498      	add	r8, r3
10001d98:	4640      	mov	r0, r8
10001d9a:	b01f      	add	sp, #124	@ 0x7c
10001d9c:	e8bd 8ff0 	ldmia.w	sp!, {r4, r5, r6, r7, r8, r9, sl, fp, pc}
10001da0:	465a      	mov	r2, fp
10001da2:	4638      	mov	r0, r7
10001da4:	e9cd 4528 	strd	r4, r5, [sp, #160]	@ 0xa0
10001da8:	e9cd a62b 	strd	sl, r6, [sp, #172]	@ 0xac
10001dac:	9c0e      	ldr	r4, [sp, #56]	@ 0x38
10001dae:	9b09      	ldr	r3, [sp, #36]	@ 0x24
10001db0:	9908      	ldr	r1, [sp, #32]
10001db2:	942a      	str	r4, [sp, #168]	@ 0xa8
10001db4:	b01f      	add	sp, #124	@ 0x7c
10001db6:	e8bd 4ff0 	ldmia.w	sp!, {r4, r5, r6, r7, r8, r9, sl, fp, lr}
10001dba:	f7ff bcbd 	b.w	10001738 <_ftoa>
10001dbe:	ea58 0309 	orrs.w	r3, r8, r9
10001dc2:	d12b      	bne.n	10001e1c <_etoa+0x224>
10001dc4:	2a00      	cmp	r2, #0
10001dc6:	f43f af62 	beq.w	10001c8e <_etoa+0x96>
10001dca:	2300      	movs	r3, #0
10001dcc:	930c      	str	r3, [sp, #48]	@ 0x30
10001dce:	9b0e      	ldr	r3, [sp, #56]	@ 0x38
10001dd0:	9a0c      	ldr	r2, [sp, #48]	@ 0x30
10001dd2:	4293      	cmp	r3, r2
10001dd4:	f300 81b9 	bgt.w	1000214a <_etoa+0x552>
10001dd8:	f04f 0800 	mov.w	r8, #0
10001ddc:	4620      	mov	r0, r4
10001dde:	4629      	mov	r1, r5
10001de0:	2200      	movs	r2, #0
10001de2:	2300      	movs	r3, #0
10001de4:	f7ff fb04 	bl	100013f0 <__wrap___aeabi_dcmplt>
10001de8:	2800      	cmp	r0, #0
10001dea:	f040 8113 	bne.w	10002014 <_etoa+0x41c>
10001dee:	ed9d 7b0a 	vldr	d7, [sp, #40]	@ 0x28
10001df2:	f426 6600 	bic.w	r6, r6, #2048	@ 0x800
10001df6:	f446 6680 	orr.w	r6, r6, #1024	@ 0x400
10001dfa:	ed8d 7b28 	vstr	d7, [sp, #160]	@ 0xa0
10001dfe:	465a      	mov	r2, fp
10001e00:	4638      	mov	r0, r7
10001e02:	e9cd 8a2a 	strd	r8, sl, [sp, #168]	@ 0xa8
10001e06:	9b09      	ldr	r3, [sp, #36]	@ 0x24
10001e08:	9908      	ldr	r1, [sp, #32]
10001e0a:	962c      	str	r6, [sp, #176]	@ 0xb0
10001e0c:	e7d2      	b.n	10001db4 <_etoa+0x1bc>
10001e0e:	bf00      	nop
10001e10:	7fefffff 	.word	0x7fefffff
10001e14:	cccccccd 	.word	0xcccccccd
10001e18:	2306      	movs	r3, #6
10001e1a:	930e      	str	r3, [sp, #56]	@ 0x38
10001e1c:	f3c9 500a 	ubfx	r0, r9, #20, #11
10001e20:	f2a0 30ff 	subw	r0, r0, #1023	@ 0x3ff
10001e24:	f7ff fa8a 	bl	1000133c <__wrap___aeabi_i2d>
10001e28:	a3c1      	add	r3, pc, #772	@ (adr r3, 10002130 <_etoa+0x538>)
10001e2a:	e9d3 2300 	ldrd	r2, r3, [r3]
10001e2e:	f7ff fa03 	bl	10001238 <__wrap___aeabi_dmul>
10001e32:	a3c1      	add	r3, pc, #772	@ (adr r3, 10002138 <_etoa+0x540>)
10001e34:	e9d3 2300 	ldrd	r2, r3, [r3]
10001e38:	f7ff f9d6 	bl	100011e8 <__wrap___aeabi_dadd>
10001e3c:	f3c9 0913 	ubfx	r9, r9, #0, #20
10001e40:	e9cd 010c 	strd	r0, r1, [sp, #48]	@ 0x30
10001e44:	f049 517f 	orr.w	r1, r9, #1069547520	@ 0x3fc00000
10001e48:	4640      	mov	r0, r8
10001e4a:	2200      	movs	r2, #0
10001e4c:	4bb2      	ldr	r3, [pc, #712]	@ (10002118 <_etoa+0x520>)
10001e4e:	f441 1140 	orr.w	r1, r1, #3145728	@ 0x300000
10001e52:	f7ff f9dd 	bl	10001210 <__wrap___aeabi_dsub>
10001e56:	a3a4      	add	r3, pc, #656	@ (adr r3, 100020e8 <_etoa+0x4f0>)
10001e58:	e9d3 2300 	ldrd	r2, r3, [r3]
10001e5c:	f7ff f9ec 	bl	10001238 <__wrap___aeabi_dmul>
10001e60:	4602      	mov	r2, r0
10001e62:	460b      	mov	r3, r1
10001e64:	e9dd 010c 	ldrd	r0, r1, [sp, #48]	@ 0x30
10001e68:	f7ff f9be 	bl	100011e8 <__wrap___aeabi_dadd>
10001e6c:	f7ff fa8a 	bl	10001384 <__wrap___aeabi_d2iz>
10001e70:	900c      	str	r0, [sp, #48]	@ 0x30
10001e72:	f7ff fa63 	bl	1000133c <__wrap___aeabi_i2d>
10001e76:	a39e      	add	r3, pc, #632	@ (adr r3, 100020f0 <_etoa+0x4f8>)
10001e78:	e9d3 2300 	ldrd	r2, r3, [r3]
10001e7c:	4680      	mov	r8, r0
10001e7e:	4689      	mov	r9, r1
10001e80:	f7ff f9da 	bl	10001238 <__wrap___aeabi_dmul>
10001e84:	2200      	movs	r2, #0
10001e86:	4ba5      	ldr	r3, [pc, #660]	@ (1000211c <_etoa+0x524>)
10001e88:	f7ff f9ae 	bl	100011e8 <__wrap___aeabi_dadd>
10001e8c:	f7ff fa7a 	bl	10001384 <__wrap___aeabi_d2iz>
10001e90:	4603      	mov	r3, r0
10001e92:	4649      	mov	r1, r9
10001e94:	4640      	mov	r0, r8
10001e96:	9312      	str	r3, [sp, #72]	@ 0x48
10001e98:	a397      	add	r3, pc, #604	@ (adr r3, 100020f8 <_etoa+0x500>)
10001e9a:	e9d3 2300 	ldrd	r2, r3, [r3]
10001e9e:	f7ff f9cb 	bl	10001238 <__wrap___aeabi_dmul>
10001ea2:	4680      	mov	r8, r0
10001ea4:	9812      	ldr	r0, [sp, #72]	@ 0x48
10001ea6:	4689      	mov	r9, r1
10001ea8:	f7ff fa48 	bl	1000133c <__wrap___aeabi_i2d>
10001eac:	a394      	add	r3, pc, #592	@ (adr r3, 10002100 <_etoa+0x508>)
10001eae:	e9d3 2300 	ldrd	r2, r3, [r3]
10001eb2:	f7ff f9c1 	bl	10001238 <__wrap___aeabi_dmul>
10001eb6:	4602      	mov	r2, r0
10001eb8:	460b      	mov	r3, r1
10001eba:	4640      	mov	r0, r8
10001ebc:	4649      	mov	r1, r9
10001ebe:	f7ff f9a7 	bl	10001210 <__wrap___aeabi_dsub>
10001ec2:	4602      	mov	r2, r0
10001ec4:	460b      	mov	r3, r1
10001ec6:	4680      	mov	r8, r0
10001ec8:	4689      	mov	r9, r1
10001eca:	f7ff f9b5 	bl	10001238 <__wrap___aeabi_dmul>
10001ece:	4642      	mov	r2, r8
10001ed0:	464b      	mov	r3, r9
10001ed2:	e9cd 0110 	strd	r0, r1, [sp, #64]	@ 0x40
10001ed6:	4640      	mov	r0, r8
10001ed8:	4649      	mov	r1, r9
10001eda:	f7ff f985 	bl	100011e8 <__wrap___aeabi_dadd>
10001ede:	2200      	movs	r2, #0
10001ee0:	e9cd 0114 	strd	r0, r1, [sp, #80]	@ 0x50
10001ee4:	e9dd 0110 	ldrd	r0, r1, [sp, #64]	@ 0x40
10001ee8:	4b8d      	ldr	r3, [pc, #564]	@ (10002120 <_etoa+0x528>)
10001eea:	f7ff f9cb 	bl	10001284 <__wrap___aeabi_ddiv>
10001eee:	2200      	movs	r2, #0
10001ef0:	4b8c      	ldr	r3, [pc, #560]	@ (10002124 <_etoa+0x52c>)
10001ef2:	f7ff f979 	bl	100011e8 <__wrap___aeabi_dadd>
10001ef6:	4602      	mov	r2, r0
10001ef8:	460b      	mov	r3, r1
10001efa:	e9dd 0110 	ldrd	r0, r1, [sp, #64]	@ 0x40
10001efe:	f7ff f9c1 	bl	10001284 <__wrap___aeabi_ddiv>
10001f02:	2200      	movs	r2, #0
10001f04:	4b88      	ldr	r3, [pc, #544]	@ (10002128 <_etoa+0x530>)
10001f06:	f7ff f96f 	bl	100011e8 <__wrap___aeabi_dadd>
10001f0a:	4602      	mov	r2, r0
10001f0c:	460b      	mov	r3, r1
10001f0e:	e9dd 0110 	ldrd	r0, r1, [sp, #64]	@ 0x40
10001f12:	f7ff f9b7 	bl	10001284 <__wrap___aeabi_ddiv>
10001f16:	4642      	mov	r2, r8
10001f18:	464b      	mov	r3, r9
10001f1a:	4680      	mov	r8, r0
10001f1c:	4689      	mov	r9, r1
10001f1e:	2000      	movs	r0, #0
10001f20:	f04f 4180 	mov.w	r1, #1073741824	@ 0x40000000
10001f24:	f7ff f974 	bl	10001210 <__wrap___aeabi_dsub>
10001f28:	4602      	mov	r2, r0
10001f2a:	460b      	mov	r3, r1
10001f2c:	4640      	mov	r0, r8
10001f2e:	4649      	mov	r1, r9
10001f30:	f7ff f95a 	bl	100011e8 <__wrap___aeabi_dadd>
10001f34:	4602      	mov	r2, r0
10001f36:	460b      	mov	r3, r1
10001f38:	e9dd 0114 	ldrd	r0, r1, [sp, #80]	@ 0x50
10001f3c:	f7ff f9a2 	bl	10001284 <__wrap___aeabi_ddiv>
10001f40:	2200      	movs	r2, #0
10001f42:	4b7a      	ldr	r3, [pc, #488]	@ (1000212c <_etoa+0x534>)
10001f44:	f7ff f950 	bl	100011e8 <__wrap___aeabi_dadd>
10001f48:	9b12      	ldr	r3, [sp, #72]	@ 0x48
10001f4a:	2200      	movs	r2, #0
10001f4c:	f203 3cff 	addw	ip, r3, #1023	@ 0x3ff
10001f50:	ea4f 530c 	mov.w	r3, ip, lsl #20
10001f54:	f7ff f970 	bl	10001238 <__wrap___aeabi_dmul>
10001f58:	4680      	mov	r8, r0
10001f5a:	4689      	mov	r9, r1
10001f5c:	e9dd 010a 	ldrd	r0, r1, [sp, #40]	@ 0x28
10001f60:	4642      	mov	r2, r8
10001f62:	464b      	mov	r3, r9
10001f64:	f7ff fa44 	bl	100013f0 <__wrap___aeabi_dcmplt>
10001f68:	b150      	cbz	r0, 10001f80 <_etoa+0x388>
10001f6a:	9b0c      	ldr	r3, [sp, #48]	@ 0x30
10001f6c:	4640      	mov	r0, r8
10001f6e:	3b01      	subs	r3, #1
10001f70:	4649      	mov	r1, r9
10001f72:	930c      	str	r3, [sp, #48]	@ 0x30
10001f74:	2200      	movs	r2, #0
10001f76:	4b6b      	ldr	r3, [pc, #428]	@ (10002124 <_etoa+0x52c>)
10001f78:	f7ff f984 	bl	10001284 <__wrap___aeabi_ddiv>
10001f7c:	4680      	mov	r8, r0
10001f7e:	4689      	mov	r9, r1
10001f80:	9a0c      	ldr	r2, [sp, #48]	@ 0x30
10001f82:	4643      	mov	r3, r8
10001f84:	3263      	adds	r2, #99	@ 0x63
10001f86:	2ac6      	cmp	r2, #198	@ 0xc6
10001f88:	f006 0202 	and.w	r2, r6, #2
10001f8c:	9210      	str	r2, [sp, #64]	@ 0x40
10001f8e:	4649      	mov	r1, r9
10001f90:	9a0f      	ldr	r2, [sp, #60]	@ 0x3c
10001f92:	d82c      	bhi.n	10001fee <_etoa+0x3f6>
10001f94:	2a00      	cmp	r2, #0
10001f96:	d05e      	beq.n	10002056 <_etoa+0x45e>
10001f98:	2204      	movs	r2, #4
10001f9a:	9212      	str	r2, [sp, #72]	@ 0x48
10001f9c:	430b      	orrs	r3, r1
10001f9e:	f43f af16 	beq.w	10001dce <_etoa+0x1d6>
10001fa2:	e9dd 010a 	ldrd	r0, r1, [sp, #40]	@ 0x28
10001fa6:	a358      	add	r3, pc, #352	@ (adr r3, 10002108 <_etoa+0x510>)
10001fa8:	e9d3 2300 	ldrd	r2, r3, [r3]
10001fac:	f7ff fa48 	bl	10001440 <__wrap___aeabi_dcmpge>
10001fb0:	b148      	cbz	r0, 10001fc6 <_etoa+0x3ce>
10001fb2:	e9dd 010a 	ldrd	r0, r1, [sp, #40]	@ 0x28
10001fb6:	a356      	add	r3, pc, #344	@ (adr r3, 10002110 <_etoa+0x518>)
10001fb8:	e9d3 2300 	ldrd	r2, r3, [r3]
10001fbc:	f7ff fa18 	bl	100013f0 <__wrap___aeabi_dcmplt>
10001fc0:	2800      	cmp	r0, #0
10001fc2:	f47f af04 	bne.w	10001dce <_etoa+0x1d6>
10001fc6:	9b0e      	ldr	r3, [sp, #56]	@ 0x38
10001fc8:	2b00      	cmp	r3, #0
10001fca:	d050      	beq.n	1000206e <_etoa+0x476>
10001fcc:	9a13      	ldr	r2, [sp, #76]	@ 0x4c
10001fce:	2a00      	cmp	r2, #0
10001fd0:	d07d      	beq.n	100020ce <_etoa+0x4d6>
10001fd2:	3b01      	subs	r3, #1
10001fd4:	930e      	str	r3, [sp, #56]	@ 0x38
10001fd6:	9b12      	ldr	r3, [sp, #72]	@ 0x48
10001fd8:	459a      	cmp	sl, r3
10001fda:	d905      	bls.n	10001fe8 <_etoa+0x3f0>
10001fdc:	9b10      	ldr	r3, [sp, #64]	@ 0x40
10001fde:	2b00      	cmp	r3, #0
10001fe0:	f000 80ae 	beq.w	10002140 <_etoa+0x548>
10001fe4:	2302      	movs	r3, #2
10001fe6:	9310      	str	r3, [sp, #64]	@ 0x40
10001fe8:	2300      	movs	r3, #0
10001fea:	930f      	str	r3, [sp, #60]	@ 0x3c
10001fec:	e044      	b.n	10002078 <_etoa+0x480>
10001fee:	bb22      	cbnz	r2, 1000203a <_etoa+0x442>
10001ff0:	f1ba 0f05 	cmp.w	sl, #5
10001ff4:	d94f      	bls.n	10002096 <_etoa+0x49e>
10001ff6:	f006 0302 	and.w	r3, r6, #2
10001ffa:	2b00      	cmp	r3, #0
10001ffc:	d149      	bne.n	10002092 <_etoa+0x49a>
10001ffe:	2305      	movs	r3, #5
10002000:	9312      	str	r3, [sp, #72]	@ 0x48
10002002:	f1aa 0305 	sub.w	r3, sl, #5
10002006:	930f      	str	r3, [sp, #60]	@ 0x3c
10002008:	e03a      	b.n	10002080 <_etoa+0x488>
1000200a:	f105 4300 	add.w	r3, r5, #2147483648	@ 0x80000000
1000200e:	940a      	str	r4, [sp, #40]	@ 0x28
10002010:	930b      	str	r3, [sp, #44]	@ 0x2c
10002012:	e627      	b.n	10001c64 <_etoa+0x6c>
10002014:	f426 6600 	bic.w	r6, r6, #2048	@ 0x800
10002018:	f446 6680 	orr.w	r6, r6, #1024	@ 0x400
1000201c:	4638      	mov	r0, r7
1000201e:	962c      	str	r6, [sp, #176]	@ 0xb0
10002020:	e9dd 670a 	ldrd	r6, r7, [sp, #40]	@ 0x28
10002024:	4634      	mov	r4, r6
10002026:	f107 4500 	add.w	r5, r7, #2147483648	@ 0x80000000
1000202a:	465a      	mov	r2, fp
1000202c:	e9cd 8a2a 	strd	r8, sl, [sp, #168]	@ 0xa8
10002030:	e9cd 4528 	strd	r4, r5, [sp, #160]	@ 0xa0
10002034:	9b09      	ldr	r3, [sp, #36]	@ 0x24
10002036:	9908      	ldr	r1, [sp, #32]
10002038:	e6bc      	b.n	10001db4 <_etoa+0x1bc>
1000203a:	2205      	movs	r2, #5
1000203c:	9212      	str	r2, [sp, #72]	@ 0x48
1000203e:	e7ad      	b.n	10001f9c <_etoa+0x3a4>
10002040:	2300      	movs	r3, #0
10002042:	2202      	movs	r2, #2
10002044:	e9cd 320f 	strd	r3, r2, [sp, #60]	@ 0x3c
10002048:	2204      	movs	r2, #4
1000204a:	930c      	str	r3, [sp, #48]	@ 0x30
1000204c:	9212      	str	r2, [sp, #72]	@ 0x48
1000204e:	e62c      	b.n	10001caa <_etoa+0xb2>
10002050:	f04f 0805 	mov.w	r8, #5
10002054:	e6c2      	b.n	10001ddc <_etoa+0x1e4>
10002056:	f1ba 0f04 	cmp.w	sl, #4
1000205a:	d91f      	bls.n	1000209c <_etoa+0x4a4>
1000205c:	9b10      	ldr	r3, [sp, #64]	@ 0x40
1000205e:	2b00      	cmp	r3, #0
10002060:	d178      	bne.n	10002154 <_etoa+0x55c>
10002062:	2304      	movs	r3, #4
10002064:	9312      	str	r3, [sp, #72]	@ 0x48
10002066:	f1aa 0304 	sub.w	r3, sl, #4
1000206a:	930f      	str	r3, [sp, #60]	@ 0x3c
1000206c:	e004      	b.n	10002078 <_etoa+0x480>
1000206e:	9b12      	ldr	r3, [sp, #72]	@ 0x48
10002070:	459a      	cmp	sl, r3
10002072:	d831      	bhi.n	100020d8 <_etoa+0x4e0>
10002074:	9b0e      	ldr	r3, [sp, #56]	@ 0x38
10002076:	930f      	str	r3, [sp, #60]	@ 0x3c
10002078:	9b0c      	ldr	r3, [sp, #48]	@ 0x30
1000207a:	2b00      	cmp	r3, #0
1000207c:	f43f ae15 	beq.w	10001caa <_etoa+0xb2>
10002080:	e9dd 010a 	ldrd	r0, r1, [sp, #40]	@ 0x28
10002084:	4642      	mov	r2, r8
10002086:	464b      	mov	r3, r9
10002088:	f7ff f8fc 	bl	10001284 <__wrap___aeabi_ddiv>
1000208c:	e9cd 010a 	strd	r0, r1, [sp, #40]	@ 0x28
10002090:	e60b      	b.n	10001caa <_etoa+0xb2>
10002092:	2302      	movs	r3, #2
10002094:	9310      	str	r3, [sp, #64]	@ 0x40
10002096:	2305      	movs	r3, #5
10002098:	9312      	str	r3, [sp, #72]	@ 0x48
1000209a:	e7f1      	b.n	10002080 <_etoa+0x488>
1000209c:	2304      	movs	r3, #4
1000209e:	9312      	str	r3, [sp, #72]	@ 0x48
100020a0:	e7ea      	b.n	10002078 <_etoa+0x480>
100020a2:	e9dd 450a 	ldrd	r4, r5, [sp, #40]	@ 0x28
100020a6:	46a0      	mov	r8, r4
100020a8:	9b0f      	ldr	r3, [sp, #60]	@ 0x3c
100020aa:	f105 4900 	add.w	r9, r5, #2147483648	@ 0x80000000
100020ae:	9303      	str	r3, [sp, #12]
100020b0:	9b0e      	ldr	r3, [sp, #56]	@ 0x38
100020b2:	465a      	mov	r2, fp
100020b4:	9302      	str	r3, [sp, #8]
100020b6:	f426 6300 	bic.w	r3, r6, #2048	@ 0x800
100020ba:	9304      	str	r3, [sp, #16]
100020bc:	4638      	mov	r0, r7
100020be:	e9cd 8900 	strd	r8, r9, [sp]
100020c2:	9b09      	ldr	r3, [sp, #36]	@ 0x24
100020c4:	9908      	ldr	r1, [sp, #32]
100020c6:	f7ff fb37 	bl	10001738 <_ftoa>
100020ca:	4602      	mov	r2, r0
100020cc:	e608      	b.n	10001ce0 <_etoa+0xe8>
100020ce:	9b12      	ldr	r3, [sp, #72]	@ 0x48
100020d0:	459a      	cmp	sl, r3
100020d2:	d844      	bhi.n	1000215e <_etoa+0x566>
100020d4:	920f      	str	r2, [sp, #60]	@ 0x3c
100020d6:	e7cf      	b.n	10002078 <_etoa+0x480>
100020d8:	9b10      	ldr	r3, [sp, #64]	@ 0x40
100020da:	b38b      	cbz	r3, 10002140 <_etoa+0x548>
100020dc:	9b0e      	ldr	r3, [sp, #56]	@ 0x38
100020de:	930f      	str	r3, [sp, #60]	@ 0x3c
100020e0:	2302      	movs	r3, #2
100020e2:	9310      	str	r3, [sp, #64]	@ 0x40
100020e4:	e7c8      	b.n	10002078 <_etoa+0x480>
100020e6:	bf00      	nop
100020e8:	636f4361 	.word	0x636f4361
100020ec:	3fd287a7 	.word	0x3fd287a7
100020f0:	0979a371 	.word	0x0979a371
100020f4:	400a934f 	.word	0x400a934f
100020f8:	bbb55516 	.word	0xbbb55516
100020fc:	40026bb1 	.word	0x40026bb1
10002100:	fefa39ef 	.word	0xfefa39ef
10002104:	3fe62e42 	.word	0x3fe62e42
10002108:	eb1c432d 	.word	0xeb1c432d
1000210c:	3f1a36e2 	.word	0x3f1a36e2
10002110:	00000000 	.word	0x00000000
10002114:	412e8480 	.word	0x412e8480
10002118:	3ff80000 	.word	0x3ff80000
1000211c:	3fe00000 	.word	0x3fe00000
10002120:	402c0000 	.word	0x402c0000
10002124:	40240000 	.word	0x40240000
10002128:	40180000 	.word	0x40180000
1000212c:	3ff00000 	.word	0x3ff00000
10002130:	509f79fb 	.word	0x509f79fb
10002134:	3fd34413 	.word	0x3fd34413
10002138:	8b60c8b3 	.word	0x8b60c8b3
1000213c:	3fc68a28 	.word	0x3fc68a28
10002140:	9b12      	ldr	r3, [sp, #72]	@ 0x48
10002142:	ebaa 0303 	sub.w	r3, sl, r3
10002146:	930f      	str	r3, [sp, #60]	@ 0x3c
10002148:	e796      	b.n	10002078 <_etoa+0x480>
1000214a:	eba3 0802 	sub.w	r8, r3, r2
1000214e:	f108 38ff 	add.w	r8, r8, #4294967295
10002152:	e643      	b.n	10001ddc <_etoa+0x1e4>
10002154:	2304      	movs	r3, #4
10002156:	9312      	str	r3, [sp, #72]	@ 0x48
10002158:	2302      	movs	r3, #2
1000215a:	9310      	str	r3, [sp, #64]	@ 0x40
1000215c:	e78c      	b.n	10002078 <_etoa+0x480>
1000215e:	9b10      	ldr	r3, [sp, #64]	@ 0x40
10002160:	2b00      	cmp	r3, #0
10002162:	d0ed      	beq.n	10002140 <_etoa+0x548>
10002164:	2302      	movs	r3, #2
10002166:	920f      	str	r2, [sp, #60]	@ 0x3c
10002168:	9310      	str	r3, [sp, #64]	@ 0x40
1000216a:	e785      	b.n	10002078 <_etoa+0x480>

1000216c <_vsnprintf>:
1000216c:	e92d 4ff0 	stmdb	sp!, {r4, r5, r6, r7, r8, r9, sl, fp, lr}
10002170:	b09b      	sub	sp, #108	@ 0x6c
10002172:	9c24      	ldr	r4, [sp, #144]	@ 0x90
10002174:	4d95      	ldr	r5, [pc, #596]	@ (100023cc <_vsnprintf+0x260>)
10002176:	940a      	str	r4, [sp, #40]	@ 0x28
10002178:	4c95      	ldr	r4, [pc, #596]	@ (100023d0 <_vsnprintf+0x264>)
1000217a:	f1b1 0a00 	subs.w	sl, r1, #0
1000217e:	bf18      	it	ne
10002180:	4683      	movne	fp, r0
10002182:	6025      	str	r5, [r4, #0]
10002184:	7818      	ldrb	r0, [r3, #0]
10002186:	4c93      	ldr	r4, [pc, #588]	@ (100023d4 <_vsnprintf+0x268>)
10002188:	4691      	mov	r9, r2
1000218a:	bf08      	it	eq
1000218c:	46a3      	moveq	fp, r4
1000218e:	9309      	str	r3, [sp, #36]	@ 0x24
10002190:	2800      	cmp	r0, #0
10002192:	f000 8293 	beq.w	100026bc <_vsnprintf+0x550>
10002196:	f04f 0800 	mov.w	r8, #0
1000219a:	e00a      	b.n	100021b2 <_vsnprintf+0x46>
1000219c:	4642      	mov	r2, r8
1000219e:	464b      	mov	r3, r9
100021a0:	4651      	mov	r1, sl
100021a2:	f108 0801 	add.w	r8, r8, #1
100021a6:	47d8      	blx	fp
100021a8:	9b09      	ldr	r3, [sp, #36]	@ 0x24
100021aa:	7818      	ldrb	r0, [r3, #0]
100021ac:	2800      	cmp	r0, #0
100021ae:	f000 80ce 	beq.w	1000234e <_vsnprintf+0x1e2>
100021b2:	9b09      	ldr	r3, [sp, #36]	@ 0x24
100021b4:	2825      	cmp	r0, #37	@ 0x25
100021b6:	f103 0301 	add.w	r3, r3, #1
100021ba:	9309      	str	r3, [sp, #36]	@ 0x24
100021bc:	d1ee      	bne.n	1000219c <_vsnprintf+0x30>
100021be:	461c      	mov	r4, r3
100021c0:	2300      	movs	r3, #0
100021c2:	4622      	mov	r2, r4
100021c4:	f812 0b01 	ldrb.w	r0, [r2], #1
100021c8:	f1a0 0120 	sub.w	r1, r0, #32
100021cc:	2910      	cmp	r1, #16
100021ce:	d80a      	bhi.n	100021e6 <_vsnprintf+0x7a>
100021d0:	e8df f001 	tbb	[pc, r1]
100021d4:	3c090940 	.word	0x3c090940
100021d8:	09090909 	.word	0x09090909
100021dc:	38090909 	.word	0x38090909
100021e0:	09093409 	.word	0x09093409
100021e4:	30          	.byte	0x30
100021e5:	00          	.byte	0x00
100021e6:	f1a0 0130 	sub.w	r1, r0, #48	@ 0x30
100021ea:	2909      	cmp	r1, #9
100021ec:	9409      	str	r4, [sp, #36]	@ 0x24
100021ee:	f240 808a 	bls.w	10002306 <_vsnprintf+0x19a>
100021f2:	282a      	cmp	r0, #42	@ 0x2a
100021f4:	f000 80f0 	beq.w	100023d8 <_vsnprintf+0x26c>
100021f8:	2500      	movs	r5, #0
100021fa:	282e      	cmp	r0, #46	@ 0x2e
100021fc:	f000 8096 	beq.w	1000232c <_vsnprintf+0x1c0>
10002200:	2600      	movs	r6, #0
10002202:	f1a0 0168 	sub.w	r1, r0, #104	@ 0x68
10002206:	2912      	cmp	r1, #18
10002208:	d82d      	bhi.n	10002266 <_vsnprintf+0xfa>
1000220a:	e8df f011 	tbh	[pc, r1, lsl #1]
1000220e:	0149      	.short	0x0149
10002210:	0143002c 	.word	0x0143002c
10002214:	0138002c 	.word	0x0138002c
10002218:	002c002c 	.word	0x002c002c
1000221c:	002c002c 	.word	0x002c002c
10002220:	002c002c 	.word	0x002c002c
10002224:	0027002c 	.word	0x0027002c
10002228:	002c002c 	.word	0x002c002c
1000222c:	002c002c 	.word	0x002c002c
10002230:	0027002c 	.word	0x0027002c
10002234:	4614      	mov	r4, r2
10002236:	f043 0301 	orr.w	r3, r3, #1
1000223a:	e7c2      	b.n	100021c2 <_vsnprintf+0x56>
1000223c:	4614      	mov	r4, r2
1000223e:	f043 0302 	orr.w	r3, r3, #2
10002242:	e7be      	b.n	100021c2 <_vsnprintf+0x56>
10002244:	4614      	mov	r4, r2
10002246:	f043 0304 	orr.w	r3, r3, #4
1000224a:	e7ba      	b.n	100021c2 <_vsnprintf+0x56>
1000224c:	4614      	mov	r4, r2
1000224e:	f043 0310 	orr.w	r3, r3, #16
10002252:	e7b6      	b.n	100021c2 <_vsnprintf+0x56>
10002254:	4614      	mov	r4, r2
10002256:	f043 0308 	orr.w	r3, r3, #8
1000225a:	e7b2      	b.n	100021c2 <_vsnprintf+0x56>
1000225c:	9909      	ldr	r1, [sp, #36]	@ 0x24
1000225e:	7848      	ldrb	r0, [r1, #1]
10002260:	f443 7380 	orr.w	r3, r3, #256	@ 0x100
10002264:	3201      	adds	r2, #1
10002266:	2867      	cmp	r0, #103	@ 0x67
10002268:	9209      	str	r2, [sp, #36]	@ 0x24
1000226a:	d87e      	bhi.n	1000236a <_vsnprintf+0x1fe>
1000226c:	2824      	cmp	r0, #36	@ 0x24
1000226e:	f240 80c1 	bls.w	100023f4 <_vsnprintf+0x288>
10002272:	f1a0 0225 	sub.w	r2, r0, #37	@ 0x25
10002276:	2a42      	cmp	r2, #66	@ 0x42
10002278:	f200 80bc 	bhi.w	100023f4 <_vsnprintf+0x288>
1000227c:	e8df f012 	tbh	[pc, r2, lsl #1]
10002280:	00ba0150 	.word	0x00ba0150
10002284:	00ba00ba 	.word	0x00ba00ba
10002288:	00ba00ba 	.word	0x00ba00ba
1000228c:	00ba00ba 	.word	0x00ba00ba
10002290:	00ba00ba 	.word	0x00ba00ba
10002294:	00ba00ba 	.word	0x00ba00ba
10002298:	00ba00ba 	.word	0x00ba00ba
1000229c:	00ba00ba 	.word	0x00ba00ba
100022a0:	00ba00ba 	.word	0x00ba00ba
100022a4:	00ba00ba 	.word	0x00ba00ba
100022a8:	00ba00ba 	.word	0x00ba00ba
100022ac:	00ba00ba 	.word	0x00ba00ba
100022b0:	00ba00ba 	.word	0x00ba00ba
100022b4:	00ba00ba 	.word	0x00ba00ba
100022b8:	00ba00ba 	.word	0x00ba00ba
100022bc:	00ba00ba 	.word	0x00ba00ba
100022c0:	01370119 	.word	0x01370119
100022c4:	00ba0119 	.word	0x00ba0119
100022c8:	00ba00ba 	.word	0x00ba00ba
100022cc:	00ba00ba 	.word	0x00ba00ba
100022d0:	00ba00ba 	.word	0x00ba00ba
100022d4:	00ba00ba 	.word	0x00ba00ba
100022d8:	00ba00ba 	.word	0x00ba00ba
100022dc:	00ba00ba 	.word	0x00ba00ba
100022e0:	00ba00ba 	.word	0x00ba00ba
100022e4:	01bc00ba 	.word	0x01bc00ba
100022e8:	00ba00ba 	.word	0x00ba00ba
100022ec:	00ba00ba 	.word	0x00ba00ba
100022f0:	00ba00ba 	.word	0x00ba00ba
100022f4:	00ba00ba 	.word	0x00ba00ba
100022f8:	01bc00ba 	.word	0x01bc00ba
100022fc:	01bc0158 	.word	0x01bc0158
10002300:	01370119 	.word	0x01370119
10002304:	0119      	.short	0x0119
10002306:	2500      	movs	r5, #0
10002308:	e000      	b.n	1000230c <_vsnprintf+0x1a0>
1000230a:	3201      	adds	r2, #1
1000230c:	eb05 0585 	add.w	r5, r5, r5, lsl #2
10002310:	eb00 0545 	add.w	r5, r0, r5, lsl #1
10002314:	7810      	ldrb	r0, [r2, #0]
10002316:	3d30      	subs	r5, #48	@ 0x30
10002318:	f1a0 0130 	sub.w	r1, r0, #48	@ 0x30
1000231c:	2909      	cmp	r1, #9
1000231e:	d9f4      	bls.n	1000230a <_vsnprintf+0x19e>
10002320:	282e      	cmp	r0, #46	@ 0x2e
10002322:	9209      	str	r2, [sp, #36]	@ 0x24
10002324:	f102 0201 	add.w	r2, r2, #1
10002328:	f47f af6a 	bne.w	10002200 <_vsnprintf+0x94>
1000232c:	9909      	ldr	r1, [sp, #36]	@ 0x24
1000232e:	f443 6380 	orr.w	r3, r3, #1024	@ 0x400
10002332:	7848      	ldrb	r0, [r1, #1]
10002334:	4611      	mov	r1, r2
10002336:	f1a0 0630 	sub.w	r6, r0, #48	@ 0x30
1000233a:	2e09      	cmp	r6, #9
1000233c:	f240 8121 	bls.w	10002582 <_vsnprintf+0x416>
10002340:	282a      	cmp	r0, #42	@ 0x2a
10002342:	f000 812f 	beq.w	100025a4 <_vsnprintf+0x438>
10002346:	9209      	str	r2, [sp, #36]	@ 0x24
10002348:	2600      	movs	r6, #0
1000234a:	3201      	adds	r2, #1
1000234c:	e759      	b.n	10002202 <_vsnprintf+0x96>
1000234e:	4644      	mov	r4, r8
10002350:	45c1      	cmp	r9, r8
10002352:	d801      	bhi.n	10002358 <_vsnprintf+0x1ec>
10002354:	f109 38ff 	add.w	r8, r9, #4294967295
10002358:	464b      	mov	r3, r9
1000235a:	4642      	mov	r2, r8
1000235c:	4651      	mov	r1, sl
1000235e:	2000      	movs	r0, #0
10002360:	47d8      	blx	fp
10002362:	4620      	mov	r0, r4
10002364:	b01b      	add	sp, #108	@ 0x6c
10002366:	e8bd 8ff0 	ldmia.w	sp!, {r4, r5, r6, r7, r8, r9, sl, fp, pc}
1000236a:	f1a0 0269 	sub.w	r2, r0, #105	@ 0x69
1000236e:	b2d2      	uxtb	r2, r2
10002370:	2a0f      	cmp	r2, #15
10002372:	d83f      	bhi.n	100023f4 <_vsnprintf+0x288>
10002374:	2101      	movs	r1, #1
10002376:	f249 0741 	movw	r7, #36929	@ 0x9041
1000237a:	4091      	lsls	r1, r2
1000237c:	4039      	ands	r1, r7
1000237e:	f040 80f3 	bne.w	10002568 <_vsnprintf+0x3fc>
10002382:	2a0a      	cmp	r2, #10
10002384:	d03d      	beq.n	10002402 <_vsnprintf+0x296>
10002386:	2a07      	cmp	r2, #7
10002388:	d134      	bne.n	100023f4 <_vsnprintf+0x288>
1000238a:	9d0a      	ldr	r5, [sp, #40]	@ 0x28
1000238c:	f855 2b04 	ldr.w	r2, [r5], #4
10002390:	2a00      	cmp	r2, #0
10002392:	f000 8113 	beq.w	100025bc <_vsnprintf+0x450>
10002396:	f043 0021 	orr.w	r0, r3, #33	@ 0x21
1000239a:	ab12      	add	r3, sp, #72	@ 0x48
1000239c:	461f      	mov	r7, r3
1000239e:	930b      	str	r3, [sp, #44]	@ 0x2c
100023a0:	e003      	b.n	100023aa <_vsnprintf+0x23e>
100023a2:	2920      	cmp	r1, #32
100023a4:	f000 8114 	beq.w	100025d0 <_vsnprintf+0x464>
100023a8:	461a      	mov	r2, r3
100023aa:	f002 040f 	and.w	r4, r2, #15
100023ae:	4623      	mov	r3, r4
100023b0:	2c09      	cmp	r4, #9
100023b2:	bf94      	ite	ls
100023b4:	3330      	addls	r3, #48	@ 0x30
100023b6:	3337      	addhi	r3, #55	@ 0x37
100023b8:	2a0f      	cmp	r2, #15
100023ba:	f807 3b01 	strb.w	r3, [r7], #1
100023be:	f101 0101 	add.w	r1, r1, #1
100023c2:	ea4f 1312 	mov.w	r3, r2, lsr #4
100023c6:	d8ec      	bhi.n	100023a2 <_vsnprintf+0x236>
100023c8:	e102      	b.n	100025d0 <_vsnprintf+0x464>
100023ca:	bf00      	nop
100023cc:	1000216d 	.word	0x1000216d
100023d0:	2000125c 	.word	0x2000125c
100023d4:	100014b1 	.word	0x100014b1
100023d8:	990a      	ldr	r1, [sp, #40]	@ 0x28
100023da:	9809      	ldr	r0, [sp, #36]	@ 0x24
100023dc:	f851 5b04 	ldr.w	r5, [r1], #4
100023e0:	7840      	ldrb	r0, [r0, #1]
100023e2:	2d00      	cmp	r5, #0
100023e4:	e9cd 2109 	strd	r2, r1, [sp, #36]	@ 0x24
100023e8:	bfbc      	itt	lt
100023ea:	f043 0302 	orrlt.w	r3, r3, #2
100023ee:	426d      	neglt	r5, r5
100023f0:	3201      	adds	r2, #1
100023f2:	e702      	b.n	100021fa <_vsnprintf+0x8e>
100023f4:	4642      	mov	r2, r8
100023f6:	464b      	mov	r3, r9
100023f8:	4651      	mov	r1, sl
100023fa:	f108 0801 	add.w	r8, r8, #1
100023fe:	47d8      	blx	fp
10002400:	e6d2      	b.n	100021a8 <_vsnprintf+0x3c>
10002402:	990a      	ldr	r1, [sp, #40]	@ 0x28
10002404:	2e00      	cmp	r6, #0
10002406:	f851 7b04 	ldr.w	r7, [r1], #4
1000240a:	bf18      	it	ne
1000240c:	4632      	movne	r2, r6
1000240e:	7838      	ldrb	r0, [r7, #0]
10002410:	bf08      	it	eq
10002412:	f04f 32ff 	moveq.w	r2, #4294967295
10002416:	2800      	cmp	r0, #0
10002418:	f000 837b 	beq.w	10002b12 <_vsnprintf+0x9a6>
1000241c:	18bc      	adds	r4, r7, r2
1000241e:	46a4      	mov	ip, r4
10002420:	463a      	mov	r2, r7
10002422:	e004      	b.n	1000242e <_vsnprintf+0x2c2>
10002424:	f812 4f01 	ldrb.w	r4, [r2, #1]!
10002428:	2c00      	cmp	r4, #0
1000242a:	f000 813f 	beq.w	100026ac <_vsnprintf+0x540>
1000242e:	4594      	cmp	ip, r2
10002430:	d1f8      	bne.n	10002424 <_vsnprintf+0x2b8>
10002432:	4664      	mov	r4, ip
10002434:	1be4      	subs	r4, r4, r7
10002436:	055a      	lsls	r2, r3, #21
10002438:	f140 8122 	bpl.w	10002680 <_vsnprintf+0x514>
1000243c:	42b4      	cmp	r4, r6
1000243e:	bf28      	it	cs
10002440:	4634      	movcs	r4, r6
10002442:	f013 0302 	ands.w	r3, r3, #2
10002446:	f000 8288 	beq.w	1000295a <_vsnprintf+0x7ee>
1000244a:	2302      	movs	r3, #2
1000244c:	e9cd 510a 	strd	r5, r1, [sp, #40]	@ 0x28
10002450:	4642      	mov	r2, r8
10002452:	461d      	mov	r5, r3
10002454:	4446      	add	r6, r8
10002456:	e008      	b.n	1000246a <_vsnprintf+0x2fe>
10002458:	464b      	mov	r3, r9
1000245a:	4651      	mov	r1, sl
1000245c:	47d8      	blx	fp
1000245e:	f817 0f01 	ldrb.w	r0, [r7, #1]!
10002462:	f108 0801 	add.w	r8, r8, #1
10002466:	b110      	cbz	r0, 1000246e <_vsnprintf+0x302>
10002468:	4642      	mov	r2, r8
1000246a:	4546      	cmp	r6, r8
1000246c:	d1f4      	bne.n	10002458 <_vsnprintf+0x2ec>
1000246e:	462b      	mov	r3, r5
10002470:	990b      	ldr	r1, [sp, #44]	@ 0x2c
10002472:	9d0a      	ldr	r5, [sp, #40]	@ 0x28
10002474:	2b00      	cmp	r3, #0
10002476:	f040 8141 	bne.w	100026fc <_vsnprintf+0x590>
1000247a:	910a      	str	r1, [sp, #40]	@ 0x28
1000247c:	e694      	b.n	100021a8 <_vsnprintf+0x3c>
1000247e:	9909      	ldr	r1, [sp, #36]	@ 0x24
10002480:	7848      	ldrb	r0, [r1, #1]
10002482:	286c      	cmp	r0, #108	@ 0x6c
10002484:	f47f aeec 	bne.w	10002260 <_vsnprintf+0xf4>
10002488:	460a      	mov	r2, r1
1000248a:	7888      	ldrb	r0, [r1, #2]
1000248c:	f443 7340 	orr.w	r3, r3, #768	@ 0x300
10002490:	3203      	adds	r2, #3
10002492:	e6e8      	b.n	10002266 <_vsnprintf+0xfa>
10002494:	9909      	ldr	r1, [sp, #36]	@ 0x24
10002496:	f443 7300 	orr.w	r3, r3, #512	@ 0x200
1000249a:	7848      	ldrb	r0, [r1, #1]
1000249c:	3201      	adds	r2, #1
1000249e:	e6e2      	b.n	10002266 <_vsnprintf+0xfa>
100024a0:	9909      	ldr	r1, [sp, #36]	@ 0x24
100024a2:	7848      	ldrb	r0, [r1, #1]
100024a4:	2868      	cmp	r0, #104	@ 0x68
100024a6:	f000 8103 	beq.w	100026b0 <_vsnprintf+0x544>
100024aa:	f043 0380 	orr.w	r3, r3, #128	@ 0x80
100024ae:	3201      	adds	r2, #1
100024b0:	e6d9      	b.n	10002266 <_vsnprintf+0xfa>
100024b2:	2867      	cmp	r0, #103	@ 0x67
100024b4:	f000 80d9 	beq.w	1000266a <_vsnprintf+0x4fe>
100024b8:	2847      	cmp	r0, #71	@ 0x47
100024ba:	f000 80dc 	beq.w	10002676 <_vsnprintf+0x50a>
100024be:	2845      	cmp	r0, #69	@ 0x45
100024c0:	f000 80db 	beq.w	1000267a <_vsnprintf+0x50e>
100024c4:	e9cd 5303 	strd	r5, r3, [sp, #12]
100024c8:	9b0a      	ldr	r3, [sp, #40]	@ 0x28
100024ca:	9602      	str	r6, [sp, #8]
100024cc:	3307      	adds	r3, #7
100024ce:	f023 0307 	bic.w	r3, r3, #7
100024d2:	461c      	mov	r4, r3
100024d4:	4642      	mov	r2, r8
100024d6:	e8f4 6702 	ldrd	r6, r7, [r4], #8
100024da:	464b      	mov	r3, r9
100024dc:	4651      	mov	r1, sl
100024de:	4658      	mov	r0, fp
100024e0:	e9cd 6700 	strd	r6, r7, [sp]
100024e4:	940a      	str	r4, [sp, #40]	@ 0x28
100024e6:	f7ff fb87 	bl	10001bf8 <_etoa>
100024ea:	4680      	mov	r8, r0
100024ec:	e65c      	b.n	100021a8 <_vsnprintf+0x3c>
100024ee:	2846      	cmp	r0, #70	@ 0x46
100024f0:	bf08      	it	eq
100024f2:	f043 0320 	orreq.w	r3, r3, #32
100024f6:	e9cd 5303 	strd	r5, r3, [sp, #12]
100024fa:	9b0a      	ldr	r3, [sp, #40]	@ 0x28
100024fc:	9602      	str	r6, [sp, #8]
100024fe:	3307      	adds	r3, #7
10002500:	f023 0307 	bic.w	r3, r3, #7
10002504:	461c      	mov	r4, r3
10002506:	4642      	mov	r2, r8
10002508:	e8f4 6702 	ldrd	r6, r7, [r4], #8
1000250c:	464b      	mov	r3, r9
1000250e:	4651      	mov	r1, sl
10002510:	4658      	mov	r0, fp
10002512:	e9cd 6700 	strd	r6, r7, [sp]
10002516:	940a      	str	r4, [sp, #40]	@ 0x28
10002518:	f7ff f90e 	bl	10001738 <_ftoa>
1000251c:	4680      	mov	r8, r0
1000251e:	e643      	b.n	100021a8 <_vsnprintf+0x3c>
10002520:	4642      	mov	r2, r8
10002522:	464b      	mov	r3, r9
10002524:	4651      	mov	r1, sl
10002526:	2025      	movs	r0, #37	@ 0x25
10002528:	f108 0801 	add.w	r8, r8, #1
1000252c:	47d8      	blx	fp
1000252e:	e63b      	b.n	100021a8 <_vsnprintf+0x3c>
10002530:	9a0a      	ldr	r2, [sp, #40]	@ 0x28
10002532:	0799      	lsls	r1, r3, #30
10002534:	f102 0404 	add.w	r4, r2, #4
10002538:	f108 0601 	add.w	r6, r8, #1
1000253c:	f140 80c6 	bpl.w	100026cc <_vsnprintf+0x560>
10002540:	7810      	ldrb	r0, [r2, #0]
10002542:	464b      	mov	r3, r9
10002544:	4642      	mov	r2, r8
10002546:	4651      	mov	r1, sl
10002548:	47d8      	blx	fp
1000254a:	2d01      	cmp	r5, #1
1000254c:	bf88      	it	hi
1000254e:	44a8      	addhi	r8, r5
10002550:	f240 81bd 	bls.w	100028ce <_vsnprintf+0x762>
10002554:	4632      	mov	r2, r6
10002556:	464b      	mov	r3, r9
10002558:	4651      	mov	r1, sl
1000255a:	2020      	movs	r0, #32
1000255c:	3601      	adds	r6, #1
1000255e:	47d8      	blx	fp
10002560:	4546      	cmp	r6, r8
10002562:	d1f7      	bne.n	10002554 <_vsnprintf+0x3e8>
10002564:	940a      	str	r4, [sp, #40]	@ 0x28
10002566:	e61f      	b.n	100021a8 <_vsnprintf+0x3c>
10002568:	286f      	cmp	r0, #111	@ 0x6f
1000256a:	f000 8081 	beq.w	10002670 <_vsnprintf+0x504>
1000256e:	f240 8248 	bls.w	10002a02 <_vsnprintf+0x896>
10002572:	2878      	cmp	r0, #120	@ 0x78
10002574:	f000 8190 	beq.w	10002898 <_vsnprintf+0x72c>
10002578:	270a      	movs	r7, #10
1000257a:	f023 0310 	bic.w	r3, r3, #16
1000257e:	46bc      	mov	ip, r7
10002580:	e041      	b.n	10002606 <_vsnprintf+0x49a>
10002582:	2600      	movs	r6, #0
10002584:	eb06 0686 	add.w	r6, r6, r6, lsl #2
10002588:	eb00 0046 	add.w	r0, r0, r6, lsl #1
1000258c:	f1a0 0630 	sub.w	r6, r0, #48	@ 0x30
10002590:	f811 0f01 	ldrb.w	r0, [r1, #1]!
10002594:	f1a0 0230 	sub.w	r2, r0, #48	@ 0x30
10002598:	2a09      	cmp	r2, #9
1000259a:	d9f3      	bls.n	10002584 <_vsnprintf+0x418>
1000259c:	460a      	mov	r2, r1
1000259e:	9109      	str	r1, [sp, #36]	@ 0x24
100025a0:	3201      	adds	r2, #1
100025a2:	e62e      	b.n	10002202 <_vsnprintf+0x96>
100025a4:	e9dd 2109 	ldrd	r2, r1, [sp, #36]	@ 0x24
100025a8:	f851 6b04 	ldr.w	r6, [r1], #4
100025ac:	7890      	ldrb	r0, [r2, #2]
100025ae:	3202      	adds	r2, #2
100025b0:	9209      	str	r2, [sp, #36]	@ 0x24
100025b2:	910a      	str	r1, [sp, #40]	@ 0x28
100025b4:	3201      	adds	r2, #1
100025b6:	ea26 76e6 	bic.w	r6, r6, r6, asr #31
100025ba:	e622      	b.n	10002202 <_vsnprintf+0x96>
100025bc:	f023 0010 	bic.w	r0, r3, #16
100025c0:	f413 6280 	ands.w	r2, r3, #1024	@ 0x400
100025c4:	f040 0021 	orr.w	r0, r0, #33	@ 0x21
100025c8:	f43f aee7 	beq.w	1000239a <_vsnprintf+0x22e>
100025cc:	ab12      	add	r3, sp, #72	@ 0x48
100025ce:	930b      	str	r3, [sp, #44]	@ 0x2c
100025d0:	9b0b      	ldr	r3, [sp, #44]	@ 0x2c
100025d2:	9006      	str	r0, [sp, #24]
100025d4:	9300      	str	r3, [sp, #0]
100025d6:	2308      	movs	r3, #8
100025d8:	2010      	movs	r0, #16
100025da:	9305      	str	r3, [sp, #20]
100025dc:	2300      	movs	r3, #0
100025de:	4642      	mov	r2, r8
100025e0:	e9cd 3002 	strd	r3, r0, [sp, #8]
100025e4:	9101      	str	r1, [sp, #4]
100025e6:	464b      	mov	r3, r9
100025e8:	4651      	mov	r1, sl
100025ea:	4658      	mov	r0, fp
100025ec:	9604      	str	r6, [sp, #16]
100025ee:	f7fe ffaf 	bl	10001550 <_ntoa_format>
100025f2:	950a      	str	r5, [sp, #40]	@ 0x28
100025f4:	4680      	mov	r8, r0
100025f6:	e5d7      	b.n	100021a8 <_vsnprintf+0x3c>
100025f8:	2858      	cmp	r0, #88	@ 0x58
100025fa:	d062      	beq.n	100026c2 <_vsnprintf+0x556>
100025fc:	2862      	cmp	r0, #98	@ 0x62
100025fe:	f040 808f 	bne.w	10002720 <_vsnprintf+0x5b4>
10002602:	2702      	movs	r7, #2
10002604:	46bc      	mov	ip, r7
10002606:	f413 6080 	ands.w	r0, r3, #1024	@ 0x400
1000260a:	f000 80dd 	beq.w	100027c8 <_vsnprintf+0x65c>
1000260e:	f023 030d 	bic.w	r3, r3, #13
10002612:	f413 7200 	ands.w	r2, r3, #512	@ 0x200
10002616:	f040 8181 	bne.w	1000291c <_vsnprintf+0x7b0>
1000261a:	990a      	ldr	r1, [sp, #40]	@ 0x28
1000261c:	1d0f      	adds	r7, r1, #4
1000261e:	f413 7180 	ands.w	r1, r3, #256	@ 0x100
10002622:	f040 8237 	bne.w	10002a94 <_vsnprintf+0x928>
10002626:	065c      	lsls	r4, r3, #25
10002628:	9a0a      	ldr	r2, [sp, #40]	@ 0x28
1000262a:	f140 813b 	bpl.w	100028a4 <_vsnprintf+0x738>
1000262e:	7812      	ldrb	r2, [r2, #0]
10002630:	2a00      	cmp	r2, #0
10002632:	f040 814e 	bne.w	100028d2 <_vsnprintf+0x766>
10002636:	f023 0310 	bic.w	r3, r3, #16
1000263a:	2800      	cmp	r0, #0
1000263c:	f000 8149 	beq.w	100028d2 <_vsnprintf+0x766>
10002640:	4611      	mov	r1, r2
10002642:	aa12      	add	r2, sp, #72	@ 0x48
10002644:	920b      	str	r2, [sp, #44]	@ 0x2c
10002646:	e9cd 5305 	strd	r5, r3, [sp, #20]
1000264a:	e9cd c603 	strd	ip, r6, [sp, #12]
1000264e:	9101      	str	r1, [sp, #4]
10002650:	9b0b      	ldr	r3, [sp, #44]	@ 0x2c
10002652:	4642      	mov	r2, r8
10002654:	9300      	str	r3, [sp, #0]
10002656:	2300      	movs	r3, #0
10002658:	4651      	mov	r1, sl
1000265a:	9302      	str	r3, [sp, #8]
1000265c:	4658      	mov	r0, fp
1000265e:	464b      	mov	r3, r9
10002660:	f7fe ff76 	bl	10001550 <_ntoa_format>
10002664:	970a      	str	r7, [sp, #40]	@ 0x28
10002666:	4680      	mov	r8, r0
10002668:	e59e      	b.n	100021a8 <_vsnprintf+0x3c>
1000266a:	f443 6300 	orr.w	r3, r3, #2048	@ 0x800
1000266e:	e729      	b.n	100024c4 <_vsnprintf+0x358>
10002670:	2708      	movs	r7, #8
10002672:	46bc      	mov	ip, r7
10002674:	e7c7      	b.n	10002606 <_vsnprintf+0x49a>
10002676:	f443 6300 	orr.w	r3, r3, #2048	@ 0x800
1000267a:	f043 0320 	orr.w	r3, r3, #32
1000267e:	e721      	b.n	100024c4 <_vsnprintf+0x358>
10002680:	f013 0302 	ands.w	r3, r3, #2
10002684:	f000 818e 	beq.w	100029a4 <_vsnprintf+0x838>
10002688:	2302      	movs	r3, #2
1000268a:	950a      	str	r5, [sp, #40]	@ 0x28
1000268c:	461e      	mov	r6, r3
1000268e:	460d      	mov	r5, r1
10002690:	4642      	mov	r2, r8
10002692:	464b      	mov	r3, r9
10002694:	4651      	mov	r1, sl
10002696:	47d8      	blx	fp
10002698:	f817 0f01 	ldrb.w	r0, [r7, #1]!
1000269c:	f108 0801 	add.w	r8, r8, #1
100026a0:	2800      	cmp	r0, #0
100026a2:	d1f5      	bne.n	10002690 <_vsnprintf+0x524>
100026a4:	4629      	mov	r1, r5
100026a6:	4633      	mov	r3, r6
100026a8:	9d0a      	ldr	r5, [sp, #40]	@ 0x28
100026aa:	e6e3      	b.n	10002474 <_vsnprintf+0x308>
100026ac:	1bd4      	subs	r4, r2, r7
100026ae:	e6c2      	b.n	10002436 <_vsnprintf+0x2ca>
100026b0:	460a      	mov	r2, r1
100026b2:	7888      	ldrb	r0, [r1, #2]
100026b4:	f043 03c0 	orr.w	r3, r3, #192	@ 0xc0
100026b8:	3203      	adds	r2, #3
100026ba:	e5d4      	b.n	10002266 <_vsnprintf+0xfa>
100026bc:	4604      	mov	r4, r0
100026be:	4680      	mov	r8, r0
100026c0:	e646      	b.n	10002350 <_vsnprintf+0x1e4>
100026c2:	2710      	movs	r7, #16
100026c4:	f043 0320 	orr.w	r3, r3, #32
100026c8:	46bc      	mov	ip, r7
100026ca:	e79c      	b.n	10002606 <_vsnprintf+0x49a>
100026cc:	2d01      	cmp	r5, #1
100026ce:	f240 80f8 	bls.w	100028c2 <_vsnprintf+0x756>
100026d2:	4646      	mov	r6, r8
100026d4:	f108 37ff 	add.w	r7, r8, #4294967295
100026d8:	442f      	add	r7, r5
100026da:	4632      	mov	r2, r6
100026dc:	464b      	mov	r3, r9
100026de:	4651      	mov	r1, sl
100026e0:	2020      	movs	r0, #32
100026e2:	3601      	adds	r6, #1
100026e4:	47d8      	blx	fp
100026e6:	42be      	cmp	r6, r7
100026e8:	d1f7      	bne.n	100026da <_vsnprintf+0x56e>
100026ea:	9b0a      	ldr	r3, [sp, #40]	@ 0x28
100026ec:	4632      	mov	r2, r6
100026ee:	7818      	ldrb	r0, [r3, #0]
100026f0:	4651      	mov	r1, sl
100026f2:	464b      	mov	r3, r9
100026f4:	47d8      	blx	fp
100026f6:	44a8      	add	r8, r5
100026f8:	940a      	str	r4, [sp, #40]	@ 0x28
100026fa:	e555      	b.n	100021a8 <_vsnprintf+0x3c>
100026fc:	4646      	mov	r6, r8
100026fe:	42a5      	cmp	r5, r4
10002700:	f67f aebb 	bls.w	1000247a <_vsnprintf+0x30e>
10002704:	44a8      	add	r8, r5
10002706:	eba8 0804 	sub.w	r8, r8, r4
1000270a:	460c      	mov	r4, r1
1000270c:	4632      	mov	r2, r6
1000270e:	464b      	mov	r3, r9
10002710:	4651      	mov	r1, sl
10002712:	2020      	movs	r0, #32
10002714:	3601      	adds	r6, #1
10002716:	47d8      	blx	fp
10002718:	4546      	cmp	r6, r8
1000271a:	d1f7      	bne.n	1000270c <_vsnprintf+0x5a0>
1000271c:	4621      	mov	r1, r4
1000271e:	e6ac      	b.n	1000247a <_vsnprintf+0x30e>
10002720:	f413 6280 	ands.w	r2, r3, #1024	@ 0x400
10002724:	f000 80bb 	beq.w	1000289e <_vsnprintf+0x732>
10002728:	f44f 6280 	mov.w	r2, #1024	@ 0x400
1000272c:	f023 0c11 	bic.w	ip, r3, #17
10002730:	f41c 7700 	ands.w	r7, ip, #512	@ 0x200
10002734:	9b0a      	ldr	r3, [sp, #40]	@ 0x28
10002736:	d14a      	bne.n	100027ce <_vsnprintf+0x662>
10002738:	f41c 7080 	ands.w	r0, ip, #256	@ 0x100
1000273c:	f103 0404 	add.w	r4, r3, #4
10002740:	f040 8134 	bne.w	100029ac <_vsnprintf+0x840>
10002744:	f01c 0f40 	tst.w	ip, #64	@ 0x40
10002748:	f040 80a3 	bne.w	10002892 <_vsnprintf+0x726>
1000274c:	f01c 0f80 	tst.w	ip, #128	@ 0x80
10002750:	f000 81d3 	beq.w	10002afa <_vsnprintf+0x98e>
10002754:	f9b3 1000 	ldrsh.w	r1, [r3]
10002758:	ea81 77e1 	eor.w	r7, r1, r1, asr #31
1000275c:	eba7 77e1 	sub.w	r7, r7, r1, asr #31
10002760:	b2bf      	uxth	r7, r7
10002762:	0fcb      	lsrs	r3, r1, #31
10002764:	2900      	cmp	r1, #0
10002766:	f000 8156 	beq.w	10002a16 <_vsnprintf+0x8aa>
1000276a:	463a      	mov	r2, r7
1000276c:	a912      	add	r1, sp, #72	@ 0x48
1000276e:	460f      	mov	r7, r1
10002770:	f8df e3d8 	ldr.w	lr, [pc, #984]	@ 10002b4c <_vsnprintf+0x9e0>
10002774:	910b      	str	r1, [sp, #44]	@ 0x2c
10002776:	930a      	str	r3, [sp, #40]	@ 0x28
10002778:	950c      	str	r5, [sp, #48]	@ 0x30
1000277a:	e001      	b.n	10002780 <_vsnprintf+0x614>
1000277c:	2820      	cmp	r0, #32
1000277e:	d00f      	beq.n	100027a0 <_vsnprintf+0x634>
10002780:	4615      	mov	r5, r2
10002782:	fbae 1302 	umull	r1, r3, lr, r2
10002786:	08db      	lsrs	r3, r3, #3
10002788:	eb03 0183 	add.w	r1, r3, r3, lsl #2
1000278c:	eba2 0141 	sub.w	r1, r2, r1, lsl #1
10002790:	3130      	adds	r1, #48	@ 0x30
10002792:	2d09      	cmp	r5, #9
10002794:	461a      	mov	r2, r3
10002796:	f100 0001 	add.w	r0, r0, #1
1000279a:	f807 1b01 	strb.w	r1, [r7], #1
1000279e:	d8ed      	bhi.n	1000277c <_vsnprintf+0x610>
100027a0:	9b0a      	ldr	r3, [sp, #40]	@ 0x28
100027a2:	9d0c      	ldr	r5, [sp, #48]	@ 0x30
100027a4:	e9cd 5c05 	strd	r5, ip, [sp, #20]
100027a8:	e9cd 0301 	strd	r0, r3, [sp, #4]
100027ac:	9604      	str	r6, [sp, #16]
100027ae:	9b0b      	ldr	r3, [sp, #44]	@ 0x2c
100027b0:	4642      	mov	r2, r8
100027b2:	9300      	str	r3, [sp, #0]
100027b4:	230a      	movs	r3, #10
100027b6:	4651      	mov	r1, sl
100027b8:	9303      	str	r3, [sp, #12]
100027ba:	4658      	mov	r0, fp
100027bc:	464b      	mov	r3, r9
100027be:	f7fe fec7 	bl	10001550 <_ntoa_format>
100027c2:	940a      	str	r4, [sp, #40]	@ 0x28
100027c4:	4680      	mov	r8, r0
100027c6:	e4ef      	b.n	100021a8 <_vsnprintf+0x3c>
100027c8:	f023 030c 	bic.w	r3, r3, #12
100027cc:	e721      	b.n	10002612 <_vsnprintf+0x4a6>
100027ce:	3307      	adds	r3, #7
100027d0:	f023 0307 	bic.w	r3, r3, #7
100027d4:	4619      	mov	r1, r3
100027d6:	4608      	mov	r0, r1
100027d8:	685b      	ldr	r3, [r3, #4]
100027da:	f850 1b08 	ldr.w	r1, [r0], #8
100027de:	0fdf      	lsrs	r7, r3, #31
100027e0:	900a      	str	r0, [sp, #40]	@ 0x28
100027e2:	ea51 0003 	orrs.w	r0, r1, r3
100027e6:	d162      	bne.n	100028ae <_vsnprintf+0x742>
100027e8:	2a00      	cmp	r2, #0
100027ea:	f040 819f 	bne.w	10002b2c <_vsnprintf+0x9c0>
100027ee:	4613      	mov	r3, r2
100027f0:	4611      	mov	r1, r2
100027f2:	aa12      	add	r2, sp, #72	@ 0x48
100027f4:	e9cd 750c 	strd	r7, r5, [sp, #48]	@ 0x30
100027f8:	2000      	movs	r0, #0
100027fa:	4615      	mov	r5, r2
100027fc:	e9cd 680e 	strd	r6, r8, [sp, #56]	@ 0x38
10002800:	f8df e348 	ldr.w	lr, [pc, #840]	@ 10002b4c <_vsnprintf+0x9e0>
10002804:	920b      	str	r2, [sp, #44]	@ 0x2c
10002806:	e001      	b.n	1000280c <_vsnprintf+0x6a0>
10002808:	2820      	cmp	r0, #32
1000280a:	d02d      	beq.n	10002868 <_vsnprintf+0x6fc>
1000280c:	185a      	adds	r2, r3, r1
1000280e:	f142 0200 	adc.w	r2, r2, #0
10002812:	fbae 7802 	umull	r7, r8, lr, r2
10002816:	f028 0703 	bic.w	r7, r8, #3
1000281a:	eb07 0798 	add.w	r7, r7, r8, lsr #2
1000281e:	1bd2      	subs	r2, r2, r7
10002820:	461e      	mov	r6, r3
10002822:	1a9b      	subs	r3, r3, r2
10002824:	f161 0700 	sbc.w	r7, r1, #0
10002828:	460c      	mov	r4, r1
1000282a:	f04f 31cc 	mov.w	r1, #3435973836	@ 0xcccccccc
1000282e:	fb01 f103 	mul.w	r1, r1, r3
10002832:	fb0e 1107 	mla	r1, lr, r7, r1
10002836:	fba3 730e 	umull	r7, r3, r3, lr
1000283a:	4419      	add	r1, r3
1000283c:	2305      	movs	r3, #5
1000283e:	f007 0801 	and.w	r8, r7, #1
10002842:	fba8 3803 	umull	r3, r8, r8, r3
10002846:	189b      	adds	r3, r3, r2
10002848:	2e0a      	cmp	r6, #10
1000284a:	f103 0330 	add.w	r3, r3, #48	@ 0x30
1000284e:	ea4f 0757 	mov.w	r7, r7, lsr #1
10002852:	f174 0400 	sbcs.w	r4, r4, #0
10002856:	f805 3b01 	strb.w	r3, [r5], #1
1000285a:	f100 0001 	add.w	r0, r0, #1
1000285e:	ea47 73c1 	orr.w	r3, r7, r1, lsl #31
10002862:	ea4f 0151 	mov.w	r1, r1, lsr #1
10002866:	d2cf      	bcs.n	10002808 <_vsnprintf+0x69c>
10002868:	e9dd 750c 	ldrd	r7, r5, [sp, #48]	@ 0x30
1000286c:	e9dd 680e 	ldrd	r6, r8, [sp, #56]	@ 0x38
10002870:	9b0b      	ldr	r3, [sp, #44]	@ 0x2c
10002872:	4642      	mov	r2, r8
10002874:	9300      	str	r3, [sp, #0]
10002876:	230a      	movs	r3, #10
10002878:	e9cd 5c05 	strd	r5, ip, [sp, #20]
1000287c:	e9cd 0701 	strd	r0, r7, [sp, #4]
10002880:	9604      	str	r6, [sp, #16]
10002882:	9303      	str	r3, [sp, #12]
10002884:	464b      	mov	r3, r9
10002886:	4651      	mov	r1, sl
10002888:	4658      	mov	r0, fp
1000288a:	f7fe fe61 	bl	10001550 <_ntoa_format>
1000288e:	4680      	mov	r8, r0
10002890:	e48a      	b.n	100021a8 <_vsnprintf+0x3c>
10002892:	7819      	ldrb	r1, [r3, #0]
10002894:	460f      	mov	r7, r1
10002896:	e764      	b.n	10002762 <_vsnprintf+0x5f6>
10002898:	2710      	movs	r7, #16
1000289a:	46bc      	mov	ip, r7
1000289c:	e6b3      	b.n	10002606 <_vsnprintf+0x49a>
1000289e:	f023 0c10 	bic.w	ip, r3, #16
100028a2:	e745      	b.n	10002730 <_vsnprintf+0x5c4>
100028a4:	061c      	lsls	r4, r3, #24
100028a6:	bf4c      	ite	mi
100028a8:	8812      	ldrhmi	r2, [r2, #0]
100028aa:	6812      	ldrpl	r2, [r2, #0]
100028ac:	e6c0      	b.n	10002630 <_vsnprintf+0x4c4>
100028ae:	460a      	mov	r2, r1
100028b0:	1e19      	subs	r1, r3, #0
100028b2:	db01      	blt.n	100028b8 <_vsnprintf+0x74c>
100028b4:	4613      	mov	r3, r2
100028b6:	e79c      	b.n	100027f2 <_vsnprintf+0x686>
100028b8:	4252      	negs	r2, r2
100028ba:	4613      	mov	r3, r2
100028bc:	eb61 0141 	sbc.w	r1, r1, r1, lsl #1
100028c0:	e797      	b.n	100027f2 <_vsnprintf+0x686>
100028c2:	4613      	mov	r3, r2
100028c4:	4651      	mov	r1, sl
100028c6:	7818      	ldrb	r0, [r3, #0]
100028c8:	4642      	mov	r2, r8
100028ca:	464b      	mov	r3, r9
100028cc:	47d8      	blx	fp
100028ce:	46b0      	mov	r8, r6
100028d0:	e648      	b.n	10002564 <_vsnprintf+0x3f8>
100028d2:	f013 0f20 	tst.w	r3, #32
100028d6:	bf14      	ite	ne
100028d8:	2041      	movne	r0, #65	@ 0x41
100028da:	2061      	moveq	r0, #97	@ 0x61
100028dc:	ac12      	add	r4, sp, #72	@ 0x48
100028de:	46a6      	mov	lr, r4
100028e0:	940b      	str	r4, [sp, #44]	@ 0x2c
100028e2:	930a      	str	r3, [sp, #40]	@ 0x28
100028e4:	f1a0 040a 	sub.w	r4, r0, #10
100028e8:	950c      	str	r5, [sp, #48]	@ 0x30
100028ea:	e002      	b.n	100028f2 <_vsnprintf+0x786>
100028ec:	2920      	cmp	r1, #32
100028ee:	d012      	beq.n	10002916 <_vsnprintf+0x7aa>
100028f0:	462a      	mov	r2, r5
100028f2:	fbb2 f5fc 	udiv	r5, r2, ip
100028f6:	fb0c 2015 	mls	r0, ip, r5, r2
100028fa:	b2c3      	uxtb	r3, r0
100028fc:	2809      	cmp	r0, #9
100028fe:	f103 0030 	add.w	r0, r3, #48	@ 0x30
10002902:	bf8a      	itet	hi
10002904:	191b      	addhi	r3, r3, r4
10002906:	b2c3      	uxtbls	r3, r0
10002908:	b2db      	uxtbhi	r3, r3
1000290a:	4562      	cmp	r2, ip
1000290c:	f80e 3b01 	strb.w	r3, [lr], #1
10002910:	f101 0101 	add.w	r1, r1, #1
10002914:	d2ea      	bcs.n	100028ec <_vsnprintf+0x780>
10002916:	9b0a      	ldr	r3, [sp, #40]	@ 0x28
10002918:	9d0c      	ldr	r5, [sp, #48]	@ 0x30
1000291a:	e694      	b.n	10002646 <_vsnprintf+0x4da>
1000291c:	9a0a      	ldr	r2, [sp, #40]	@ 0x28
1000291e:	3207      	adds	r2, #7
10002920:	f022 0207 	bic.w	r2, r2, #7
10002924:	6851      	ldr	r1, [r2, #4]
10002926:	f852 4b08 	ldr.w	r4, [r2], #8
1000292a:	468e      	mov	lr, r1
1000292c:	920a      	str	r2, [sp, #40]	@ 0x28
1000292e:	ea54 0201 	orrs.w	r2, r4, r1
10002932:	d176      	bne.n	10002a22 <_vsnprintf+0x8b6>
10002934:	f023 0310 	bic.w	r3, r3, #16
10002938:	2800      	cmp	r0, #0
1000293a:	d072      	beq.n	10002a22 <_vsnprintf+0x8b6>
1000293c:	2200      	movs	r2, #0
1000293e:	4611      	mov	r1, r2
10002940:	aa12      	add	r2, sp, #72	@ 0x48
10002942:	920b      	str	r2, [sp, #44]	@ 0x2c
10002944:	e9cd 5305 	strd	r5, r3, [sp, #20]
10002948:	9b0b      	ldr	r3, [sp, #44]	@ 0x2c
1000294a:	4642      	mov	r2, r8
1000294c:	9300      	str	r3, [sp, #0]
1000294e:	2300      	movs	r3, #0
10002950:	e9cd c603 	strd	ip, r6, [sp, #12]
10002954:	9101      	str	r1, [sp, #4]
10002956:	9302      	str	r3, [sp, #8]
10002958:	e794      	b.n	10002884 <_vsnprintf+0x718>
1000295a:	42a5      	cmp	r5, r4
1000295c:	bf98      	it	ls
1000295e:	3401      	addls	r4, #1
10002960:	f67f ad74 	bls.w	1000244c <_vsnprintf+0x2e0>
10002964:	f44f 6380 	mov.w	r3, #1024	@ 0x400
10002968:	e9cd 750a 	strd	r7, r5, [sp, #40]	@ 0x28
1000296c:	eb05 0208 	add.w	r2, r5, r8
10002970:	461f      	mov	r7, r3
10002972:	460d      	mov	r5, r1
10002974:	1b14      	subs	r4, r2, r4
10002976:	4642      	mov	r2, r8
10002978:	464b      	mov	r3, r9
1000297a:	4651      	mov	r1, sl
1000297c:	2020      	movs	r0, #32
1000297e:	f108 0801 	add.w	r8, r8, #1
10002982:	47d8      	blx	fp
10002984:	45a0      	cmp	r8, r4
10002986:	d1f6      	bne.n	10002976 <_vsnprintf+0x80a>
10002988:	463b      	mov	r3, r7
1000298a:	9f0a      	ldr	r7, [sp, #40]	@ 0x28
1000298c:	4629      	mov	r1, r5
1000298e:	7838      	ldrb	r0, [r7, #0]
10002990:	9d0b      	ldr	r5, [sp, #44]	@ 0x2c
10002992:	1c6c      	adds	r4, r5, #1
10002994:	2800      	cmp	r0, #0
10002996:	f43f ad70 	beq.w	1000247a <_vsnprintf+0x30e>
1000299a:	2b00      	cmp	r3, #0
1000299c:	f43f ae75 	beq.w	1000268a <_vsnprintf+0x51e>
100029a0:	2300      	movs	r3, #0
100029a2:	e553      	b.n	1000244c <_vsnprintf+0x2e0>
100029a4:	42a5      	cmp	r5, r4
100029a6:	d8df      	bhi.n	10002968 <_vsnprintf+0x7fc>
100029a8:	3401      	adds	r4, #1
100029aa:	e66e      	b.n	1000268a <_vsnprintf+0x51e>
100029ac:	6819      	ldr	r1, [r3, #0]
100029ae:	0fcb      	lsrs	r3, r1, #31
100029b0:	2900      	cmp	r1, #0
100029b2:	f000 80a8 	beq.w	10002b06 <_vsnprintf+0x99a>
100029b6:	ea81 72e1 	eor.w	r2, r1, r1, asr #31
100029ba:	eba2 72e1 	sub.w	r2, r2, r1, asr #31
100029be:	a912      	add	r1, sp, #72	@ 0x48
100029c0:	4608      	mov	r0, r1
100029c2:	f8df e188 	ldr.w	lr, [pc, #392]	@ 10002b4c <_vsnprintf+0x9e0>
100029c6:	910b      	str	r1, [sp, #44]	@ 0x2c
100029c8:	930a      	str	r3, [sp, #40]	@ 0x28
100029ca:	950c      	str	r5, [sp, #48]	@ 0x30
100029cc:	e001      	b.n	100029d2 <_vsnprintf+0x866>
100029ce:	2f20      	cmp	r7, #32
100029d0:	d00f      	beq.n	100029f2 <_vsnprintf+0x886>
100029d2:	4615      	mov	r5, r2
100029d4:	fbae 1302 	umull	r1, r3, lr, r2
100029d8:	08db      	lsrs	r3, r3, #3
100029da:	eb03 0183 	add.w	r1, r3, r3, lsl #2
100029de:	eba2 0141 	sub.w	r1, r2, r1, lsl #1
100029e2:	3130      	adds	r1, #48	@ 0x30
100029e4:	2d09      	cmp	r5, #9
100029e6:	461a      	mov	r2, r3
100029e8:	f107 0701 	add.w	r7, r7, #1
100029ec:	f800 1b01 	strb.w	r1, [r0], #1
100029f0:	d8ed      	bhi.n	100029ce <_vsnprintf+0x862>
100029f2:	9b0a      	ldr	r3, [sp, #40]	@ 0x28
100029f4:	9d0c      	ldr	r5, [sp, #48]	@ 0x30
100029f6:	e9cd 5c05 	strd	r5, ip, [sp, #20]
100029fa:	e9cd 7301 	strd	r7, r3, [sp, #4]
100029fe:	9604      	str	r6, [sp, #16]
10002a00:	e6d5      	b.n	100027ae <_vsnprintf+0x642>
10002a02:	2869      	cmp	r0, #105	@ 0x69
10002a04:	f023 0c10 	bic.w	ip, r3, #16
10002a08:	f040 808c 	bne.w	10002b24 <_vsnprintf+0x9b8>
10002a0c:	f413 6280 	ands.w	r2, r3, #1024	@ 0x400
10002a10:	f43f ae8e 	beq.w	10002730 <_vsnprintf+0x5c4>
10002a14:	e688      	b.n	10002728 <_vsnprintf+0x5bc>
10002a16:	2a00      	cmp	r2, #0
10002a18:	f43f aea8 	beq.w	1000276c <_vsnprintf+0x600>
10002a1c:	aa12      	add	r2, sp, #72	@ 0x48
10002a1e:	920b      	str	r2, [sp, #44]	@ 0x2c
10002a20:	e6c0      	b.n	100027a4 <_vsnprintf+0x638>
10002a22:	f013 0f20 	tst.w	r3, #32
10002a26:	bf14      	ite	ne
10002a28:	2241      	movne	r2, #65	@ 0x41
10002a2a:	2261      	moveq	r2, #97	@ 0x61
10002a2c:	2000      	movs	r0, #0
10002a2e:	a912      	add	r1, sp, #72	@ 0x48
10002a30:	3a0a      	subs	r2, #10
10002a32:	e9cd 680e 	strd	r6, r8, [sp, #56]	@ 0x38
10002a36:	e9cd 350c 	strd	r3, r5, [sp, #48]	@ 0x30
10002a3a:	f8cd b044 	str.w	fp, [sp, #68]	@ 0x44
10002a3e:	4606      	mov	r6, r0
10002a40:	4688      	mov	r8, r1
10002a42:	4675      	mov	r5, lr
10002a44:	4693      	mov	fp, r2
10002a46:	910b      	str	r1, [sp, #44]	@ 0x2c
10002a48:	f8cd c040 	str.w	ip, [sp, #64]	@ 0x40
10002a4c:	e003      	b.n	10002a56 <_vsnprintf+0x8ea>
10002a4e:	2e20      	cmp	r6, #32
10002a50:	d017      	beq.n	10002a82 <_vsnprintf+0x916>
10002a52:	4604      	mov	r4, r0
10002a54:	460d      	mov	r5, r1
10002a56:	4629      	mov	r1, r5
10002a58:	463a      	mov	r2, r7
10002a5a:	2300      	movs	r3, #0
10002a5c:	4620      	mov	r0, r4
10002a5e:	f002 febf 	bl	100057e0 <____aeabi_uldivmod_veneer>
10002a62:	b2d2      	uxtb	r2, r2
10002a64:	2a09      	cmp	r2, #9
10002a66:	f102 0330 	add.w	r3, r2, #48	@ 0x30
10002a6a:	bf88      	it	hi
10002a6c:	eb02 030b 	addhi.w	r3, r2, fp
10002a70:	42bc      	cmp	r4, r7
10002a72:	b2db      	uxtb	r3, r3
10002a74:	f175 0500 	sbcs.w	r5, r5, #0
10002a78:	f808 3b01 	strb.w	r3, [r8], #1
10002a7c:	f106 0601 	add.w	r6, r6, #1
10002a80:	d2e5      	bcs.n	10002a4e <_vsnprintf+0x8e2>
10002a82:	4631      	mov	r1, r6
10002a84:	e9dd 350c 	ldrd	r3, r5, [sp, #48]	@ 0x30
10002a88:	e9dd cb10 	ldrd	ip, fp, [sp, #64]	@ 0x40
10002a8c:	f8dd 803c 	ldr.w	r8, [sp, #60]	@ 0x3c
10002a90:	9e0e      	ldr	r6, [sp, #56]	@ 0x38
10002a92:	e757      	b.n	10002944 <_vsnprintf+0x7d8>
10002a94:	990a      	ldr	r1, [sp, #40]	@ 0x28
10002a96:	6809      	ldr	r1, [r1, #0]
10002a98:	b951      	cbnz	r1, 10002ab0 <_vsnprintf+0x944>
10002a9a:	f023 0310 	bic.w	r3, r3, #16
10002a9e:	b138      	cbz	r0, 10002ab0 <_vsnprintf+0x944>
10002aa0:	a912      	add	r1, sp, #72	@ 0x48
10002aa2:	910b      	str	r1, [sp, #44]	@ 0x2c
10002aa4:	e9cd 5305 	strd	r5, r3, [sp, #20]
10002aa8:	e9cd c603 	strd	ip, r6, [sp, #12]
10002aac:	9201      	str	r2, [sp, #4]
10002aae:	e5cf      	b.n	10002650 <_vsnprintf+0x4e4>
10002ab0:	f013 0f20 	tst.w	r3, #32
10002ab4:	bf14      	ite	ne
10002ab6:	2041      	movne	r0, #65	@ 0x41
10002ab8:	2061      	moveq	r0, #97	@ 0x61
10002aba:	ac12      	add	r4, sp, #72	@ 0x48
10002abc:	46a6      	mov	lr, r4
10002abe:	940b      	str	r4, [sp, #44]	@ 0x2c
10002ac0:	930a      	str	r3, [sp, #40]	@ 0x28
10002ac2:	f1a0 040a 	sub.w	r4, r0, #10
10002ac6:	950c      	str	r5, [sp, #48]	@ 0x30
10002ac8:	e002      	b.n	10002ad0 <_vsnprintf+0x964>
10002aca:	2a20      	cmp	r2, #32
10002acc:	d012      	beq.n	10002af4 <_vsnprintf+0x988>
10002ace:	4629      	mov	r1, r5
10002ad0:	fbb1 f5fc 	udiv	r5, r1, ip
10002ad4:	fb0c 1015 	mls	r0, ip, r5, r1
10002ad8:	b2c3      	uxtb	r3, r0
10002ada:	2809      	cmp	r0, #9
10002adc:	f103 0030 	add.w	r0, r3, #48	@ 0x30
10002ae0:	bf8a      	itet	hi
10002ae2:	191b      	addhi	r3, r3, r4
10002ae4:	b2c3      	uxtbls	r3, r0
10002ae6:	b2db      	uxtbhi	r3, r3
10002ae8:	4561      	cmp	r1, ip
10002aea:	f80e 3b01 	strb.w	r3, [lr], #1
10002aee:	f102 0201 	add.w	r2, r2, #1
10002af2:	d2ea      	bcs.n	10002aca <_vsnprintf+0x95e>
10002af4:	9b0a      	ldr	r3, [sp, #40]	@ 0x28
10002af6:	9d0c      	ldr	r5, [sp, #48]	@ 0x30
10002af8:	e7d4      	b.n	10002aa4 <_vsnprintf+0x938>
10002afa:	6819      	ldr	r1, [r3, #0]
10002afc:	ea81 77e1 	eor.w	r7, r1, r1, asr #31
10002b00:	eba7 77e1 	sub.w	r7, r7, r1, asr #31
10002b04:	e62d      	b.n	10002762 <_vsnprintf+0x5f6>
10002b06:	2a00      	cmp	r2, #0
10002b08:	f43f af59 	beq.w	100029be <_vsnprintf+0x852>
10002b0c:	aa12      	add	r2, sp, #72	@ 0x48
10002b0e:	920b      	str	r2, [sp, #44]	@ 0x2c
10002b10:	e771      	b.n	100029f6 <_vsnprintf+0x88a>
10002b12:	f413 6480 	ands.w	r4, r3, #1024	@ 0x400
10002b16:	d00d      	beq.n	10002b34 <_vsnprintf+0x9c8>
10002b18:	f013 0402 	ands.w	r4, r3, #2
10002b1c:	d012      	beq.n	10002b44 <_vsnprintf+0x9d8>
10002b1e:	4604      	mov	r4, r0
10002b20:	4646      	mov	r6, r8
10002b22:	e5ec      	b.n	100026fe <_vsnprintf+0x592>
10002b24:	270a      	movs	r7, #10
10002b26:	4663      	mov	r3, ip
10002b28:	46bc      	mov	ip, r7
10002b2a:	e56c      	b.n	10002606 <_vsnprintf+0x49a>
10002b2c:	ab12      	add	r3, sp, #72	@ 0x48
10002b2e:	2000      	movs	r0, #0
10002b30:	930b      	str	r3, [sp, #44]	@ 0x2c
10002b32:	e69d      	b.n	10002870 <_vsnprintf+0x704>
10002b34:	f013 0302 	ands.w	r3, r3, #2
10002b38:	f47f ade0 	bne.w	100026fc <_vsnprintf+0x590>
10002b3c:	2d00      	cmp	r5, #0
10002b3e:	f47f af13 	bne.w	10002968 <_vsnprintf+0x7fc>
10002b42:	e49a      	b.n	1000247a <_vsnprintf+0x30e>
10002b44:	2d00      	cmp	r5, #0
10002b46:	f47f af0d 	bne.w	10002964 <_vsnprintf+0x7f8>
10002b4a:	e496      	b.n	1000247a <_vsnprintf+0x30e>
10002b4c:	cccccccd 	.word	0xcccccccd

10002b50 <vfctprintf>:
10002b50:	b570      	push	{r4, r5, r6, lr}
10002b52:	4694      	mov	ip, r2
10002b54:	461e      	mov	r6, r3
10002b56:	4605      	mov	r5, r0
10002b58:	460c      	mov	r4, r1
10002b5a:	b084      	sub	sp, #16
10002b5c:	f04f 32ff 	mov.w	r2, #4294967295
10002b60:	4663      	mov	r3, ip
10002b62:	a902      	add	r1, sp, #8
10002b64:	9600      	str	r6, [sp, #0]
10002b66:	4803      	ldr	r0, [pc, #12]	@ (10002b74 <vfctprintf+0x24>)
10002b68:	e9cd 5402 	strd	r5, r4, [sp, #8]
10002b6c:	f7ff fafe 	bl	1000216c <_vsnprintf>
10002b70:	b004      	add	sp, #16
10002b72:	bd70      	pop	{r4, r5, r6, pc}
10002b74:	1000172d 	.word	0x1000172d

10002b78 <weak_raw_vprintf>:
10002b78:	b510      	push	{r4, lr}
10002b7a:	4b09      	ldr	r3, [pc, #36]	@ (10002ba0 <weak_raw_vprintf+0x28>)
10002b7c:	b084      	sub	sp, #16
10002b7e:	681c      	ldr	r4, [r3, #0]
10002b80:	b14c      	cbz	r4, 10002b96 <weak_raw_vprintf+0x1e>
10002b82:	4603      	mov	r3, r0
10002b84:	9100      	str	r1, [sp, #0]
10002b86:	f04f 32ff 	mov.w	r2, #4294967295
10002b8a:	a903      	add	r1, sp, #12
10002b8c:	4805      	ldr	r0, [pc, #20]	@ (10002ba4 <weak_raw_vprintf+0x2c>)
10002b8e:	47a0      	blx	r4
10002b90:	2001      	movs	r0, #1
10002b92:	b004      	add	sp, #16
10002b94:	bd10      	pop	{r4, pc}
10002b96:	f000 f97b 	bl	10002e90 <__wrap_puts>
10002b9a:	4620      	mov	r0, r4
10002b9c:	b004      	add	sp, #16
10002b9e:	bd10      	pop	{r4, pc}
10002ba0:	2000125c 	.word	0x2000125c
10002ba4:	10001725 	.word	0x10001725

10002ba8 <_exit>:
10002ba8:	be00      	bkpt	0x0000
10002baa:	e7fd      	b.n	10002ba8 <_exit>

10002bac <_sbrk>:
10002bac:	4a07      	ldr	r2, [pc, #28]	@ (10002bcc <_sbrk+0x20>)
10002bae:	4603      	mov	r3, r0
10002bb0:	6810      	ldr	r0, [r2, #0]
10002bb2:	b138      	cbz	r0, 10002bc4 <_sbrk+0x18>
10002bb4:	4906      	ldr	r1, [pc, #24]	@ (10002bd0 <_sbrk+0x24>)
10002bb6:	4403      	add	r3, r0
10002bb8:	428b      	cmp	r3, r1
10002bba:	bf8c      	ite	hi
10002bbc:	f04f 30ff 	movhi.w	r0, #4294967295
10002bc0:	6013      	strls	r3, [r2, #0]
10002bc2:	4770      	bx	lr
10002bc4:	4903      	ldr	r1, [pc, #12]	@ (10002bd4 <_sbrk+0x28>)
10002bc6:	4608      	mov	r0, r1
10002bc8:	6011      	str	r1, [r2, #0]
10002bca:	e7f3      	b.n	10002bb4 <_sbrk+0x8>
10002bcc:	20001258 	.word	0x20001258
10002bd0:	20080000 	.word	0x20080000
10002bd4:	2000140c 	.word	0x2000140c

10002bd8 <exit>:
10002bd8:	b508      	push	{r3, lr}
10002bda:	f7ff ffe5 	bl	10002ba8 <_exit>
10002bde:	bf00      	nop

10002be0 <runtime_init>:
10002be0:	b538      	push	{r3, r4, r5, lr}
10002be2:	4c06      	ldr	r4, [pc, #24]	@ (10002bfc <runtime_init+0x1c>)
10002be4:	4d06      	ldr	r5, [pc, #24]	@ (10002c00 <runtime_init+0x20>)
10002be6:	f7fe f9f3 	bl	10000fd0 <runtime_run_initializers>
10002bea:	42ac      	cmp	r4, r5
10002bec:	d204      	bcs.n	10002bf8 <runtime_init+0x18>
10002bee:	f854 3b04 	ldr.w	r3, [r4], #4
10002bf2:	4798      	blx	r3
10002bf4:	42ac      	cmp	r4, r5
10002bf6:	d3fa      	bcc.n	10002bee <runtime_init+0xe>
10002bf8:	bd38      	pop	{r3, r4, r5, pc}
10002bfa:	bf00      	nop
10002bfc:	10005838 	.word	0x10005838
10002c00:	10005840 	.word	0x10005840

10002c04 <stdio_out_chars_no_crlf>:
10002c04:	6803      	ldr	r3, [r0, #0]
10002c06:	4608      	mov	r0, r1
10002c08:	4611      	mov	r1, r2
10002c0a:	4718      	bx	r3

10002c0c <stdio_out_chars_crlf>:
10002c0c:	e92d 41f0 	stmdb	sp!, {r4, r5, r6, r7, r8, lr}
10002c10:	4615      	mov	r5, r2
10002c12:	7d42      	ldrb	r2, [r0, #21]
10002c14:	4607      	mov	r7, r0
10002c16:	4688      	mov	r8, r1
10002c18:	2a00      	cmp	r2, #0
10002c1a:	d046      	beq.n	10002caa <stdio_out_chars_crlf+0x9e>
10002c1c:	2d00      	cmp	r5, #0
10002c1e:	dd1d      	ble.n	10002c5c <stdio_out_chars_crlf+0x50>
10002c20:	780b      	ldrb	r3, [r1, #0]
10002c22:	2b0a      	cmp	r3, #10
10002c24:	d023      	beq.n	10002c6e <stdio_out_chars_crlf+0x62>
10002c26:	2d01      	cmp	r5, #1
10002c28:	f04f 0c00 	mov.w	ip, #0
10002c2c:	d018      	beq.n	10002c60 <stdio_out_chars_crlf+0x54>
10002c2e:	4646      	mov	r6, r8
10002c30:	2401      	movs	r4, #1
10002c32:	f816 2f01 	ldrb.w	r2, [r6, #1]!
10002c36:	4621      	mov	r1, r4
10002c38:	2a0a      	cmp	r2, #10
10002c3a:	f104 0401 	add.w	r4, r4, #1
10002c3e:	d022      	beq.n	10002c86 <stdio_out_chars_crlf+0x7a>
10002c40:	42a5      	cmp	r5, r4
10002c42:	d1f6      	bne.n	10002c32 <stdio_out_chars_crlf+0x26>
10002c44:	4565      	cmp	r5, ip
10002c46:	dc0b      	bgt.n	10002c60 <stdio_out_chars_crlf+0x54>
10002c48:	eb08 0305 	add.w	r3, r8, r5
10002c4c:	f813 3c01 	ldrb.w	r3, [r3, #-1]
10002c50:	f1a3 030d 	sub.w	r3, r3, #13
10002c54:	fab3 f383 	clz	r3, r3
10002c58:	095b      	lsrs	r3, r3, #5
10002c5a:	753b      	strb	r3, [r7, #20]
10002c5c:	e8bd 81f0 	ldmia.w	sp!, {r4, r5, r6, r7, r8, pc}
10002c60:	683b      	ldr	r3, [r7, #0]
10002c62:	eba5 010c 	sub.w	r1, r5, ip
10002c66:	eb08 000c 	add.w	r0, r8, ip
10002c6a:	4798      	blx	r3
10002c6c:	e7ec      	b.n	10002c48 <stdio_out_chars_crlf+0x3c>
10002c6e:	7d03      	ldrb	r3, [r0, #20]
10002c70:	2b00      	cmp	r3, #0
10002c72:	d1d8      	bne.n	10002c26 <stdio_out_chars_crlf+0x1a>
10002c74:	6803      	ldr	r3, [r0, #0]
10002c76:	2102      	movs	r1, #2
10002c78:	480f      	ldr	r0, [pc, #60]	@ (10002cb8 <stdio_out_chars_crlf+0xac>)
10002c7a:	4798      	blx	r3
10002c7c:	2d01      	cmp	r5, #1
10002c7e:	d0e3      	beq.n	10002c48 <stdio_out_chars_crlf+0x3c>
10002c80:	f04f 0c01 	mov.w	ip, #1
10002c84:	e7d3      	b.n	10002c2e <stdio_out_chars_crlf+0x22>
10002c86:	f816 3c01 	ldrb.w	r3, [r6, #-1]
10002c8a:	2b0d      	cmp	r3, #13
10002c8c:	d0d8      	beq.n	10002c40 <stdio_out_chars_crlf+0x34>
10002c8e:	458c      	cmp	ip, r1
10002c90:	eb08 000c 	add.w	r0, r8, ip
10002c94:	eba1 010c 	sub.w	r1, r1, ip
10002c98:	da01      	bge.n	10002c9e <stdio_out_chars_crlf+0x92>
10002c9a:	683b      	ldr	r3, [r7, #0]
10002c9c:	4798      	blx	r3
10002c9e:	2102      	movs	r1, #2
10002ca0:	4805      	ldr	r0, [pc, #20]	@ (10002cb8 <stdio_out_chars_crlf+0xac>)
10002ca2:	683b      	ldr	r3, [r7, #0]
10002ca4:	4798      	blx	r3
10002ca6:	46a4      	mov	ip, r4
10002ca8:	e7ca      	b.n	10002c40 <stdio_out_chars_crlf+0x34>
10002caa:	4629      	mov	r1, r5
10002cac:	4640      	mov	r0, r8
10002cae:	683b      	ldr	r3, [r7, #0]
10002cb0:	e8bd 41f0 	ldmia.w	sp!, {r4, r5, r6, r7, r8, lr}
10002cb4:	4718      	bx	r3
10002cb6:	bf00      	nop
10002cb8:	10005a20 	.word	0x10005a20

10002cbc <stdio_buffered_printer>:
10002cbc:	680b      	ldr	r3, [r1, #0]
10002cbe:	e92d 41f0 	stmdb	sp!, {r4, r5, r6, r7, r8, lr}
10002cc2:	2b80      	cmp	r3, #128	@ 0x80
10002cc4:	460d      	mov	r5, r1
10002cc6:	4606      	mov	r6, r0
10002cc8:	d005      	beq.n	10002cd6 <stdio_buffered_printer+0x1a>
10002cca:	1c5a      	adds	r2, r3, #1
10002ccc:	442b      	add	r3, r5
10002cce:	602a      	str	r2, [r5, #0]
10002cd0:	711e      	strb	r6, [r3, #4]
10002cd2:	e8bd 81f0 	ldmia.w	sp!, {r4, r5, r6, r7, r8, pc}
10002cd6:	4b0f      	ldr	r3, [pc, #60]	@ (10002d14 <stdio_buffered_printer+0x58>)
10002cd8:	681c      	ldr	r4, [r3, #0]
10002cda:	b1a4      	cbz	r4, 10002d06 <stdio_buffered_printer+0x4a>
10002cdc:	4f0e      	ldr	r7, [pc, #56]	@ (10002d18 <stdio_buffered_printer+0x5c>)
10002cde:	f101 0804 	add.w	r8, r1, #4
10002ce2:	e001      	b.n	10002ce8 <stdio_buffered_printer+0x2c>
10002ce4:	6924      	ldr	r4, [r4, #16]
10002ce6:	b174      	cbz	r4, 10002d06 <stdio_buffered_printer+0x4a>
10002ce8:	6823      	ldr	r3, [r4, #0]
10002cea:	2b00      	cmp	r3, #0
10002cec:	d0fa      	beq.n	10002ce4 <stdio_buffered_printer+0x28>
10002cee:	683b      	ldr	r3, [r7, #0]
10002cf0:	b10b      	cbz	r3, 10002cf6 <stdio_buffered_printer+0x3a>
10002cf2:	42a3      	cmp	r3, r4
10002cf4:	d1f6      	bne.n	10002ce4 <stdio_buffered_printer+0x28>
10002cf6:	4620      	mov	r0, r4
10002cf8:	4641      	mov	r1, r8
10002cfa:	682a      	ldr	r2, [r5, #0]
10002cfc:	f7ff ff86 	bl	10002c0c <stdio_out_chars_crlf>
10002d00:	6924      	ldr	r4, [r4, #16]
10002d02:	2c00      	cmp	r4, #0
10002d04:	d1f0      	bne.n	10002ce8 <stdio_buffered_printer+0x2c>
10002d06:	2300      	movs	r3, #0
10002d08:	2201      	movs	r2, #1
10002d0a:	442b      	add	r3, r5
10002d0c:	602a      	str	r2, [r5, #0]
10002d0e:	711e      	strb	r6, [r3, #4]
10002d10:	e8bd 81f0 	ldmia.w	sp!, {r4, r5, r6, r7, r8, pc}
10002d14:	2000124c 	.word	0x2000124c
10002d18:	20001254 	.word	0x20001254

10002d1c <stdio_put_string>:
10002d1c:	e92d 47f0 	stmdb	sp!, {r4, r5, r6, r7, r8, r9, sl, lr}
10002d20:	b082      	sub	sp, #8
10002d22:	460d      	mov	r5, r1
10002d24:	4691      	mov	r9, r2
10002d26:	461c      	mov	r4, r3
10002d28:	4606      	mov	r6, r0
10002d2a:	f7fe f831 	bl	10000d90 <time_us_64>
10002d2e:	f04f 3cff 	mov.w	ip, #4294967295
10002d32:	f06f 4700 	mvn.w	r7, #2147483648	@ 0x80000000
10002d36:	4a2e      	ldr	r2, [pc, #184]	@ (10002df0 <stdio_put_string+0xd4>)
10002d38:	1882      	adds	r2, r0, r2
10002d3a:	f141 0300 	adc.w	r3, r1, #0
10002d3e:	4594      	cmp	ip, r2
10002d40:	eb77 0103 	sbcs.w	r1, r7, r3
10002d44:	bf3c      	itt	cc
10002d46:	4662      	movcc	r2, ip
10002d48:	463b      	movcc	r3, r7
10002d4a:	482a      	ldr	r0, [pc, #168]	@ (10002df4 <stdio_put_string+0xd8>)
10002d4c:	f002 fd50 	bl	100057f0 <__mutex_try_enter_block_until_veneer>
10002d50:	1c6b      	adds	r3, r5, #1
10002d52:	4680      	mov	r8, r0
10002d54:	d040      	beq.n	10002dd8 <stdio_put_string+0xbc>
10002d56:	b30c      	cbz	r4, 10002d9c <stdio_put_string+0x80>
10002d58:	4f27      	ldr	r7, [pc, #156]	@ (10002df8 <stdio_put_string+0xdc>)
10002d5a:	4b28      	ldr	r3, [pc, #160]	@ (10002dfc <stdio_put_string+0xe0>)
10002d5c:	681c      	ldr	r4, [r3, #0]
10002d5e:	b1b4      	cbz	r4, 10002d8e <stdio_put_string+0x72>
10002d60:	f1b9 0f00 	cmp.w	r9, #0
10002d64:	d11c      	bne.n	10002da0 <stdio_put_string+0x84>
10002d66:	f8df 909c 	ldr.w	r9, [pc, #156]	@ 10002e04 <stdio_put_string+0xe8>
10002d6a:	e001      	b.n	10002d70 <stdio_put_string+0x54>
10002d6c:	6924      	ldr	r4, [r4, #16]
10002d6e:	b174      	cbz	r4, 10002d8e <stdio_put_string+0x72>
10002d70:	6823      	ldr	r3, [r4, #0]
10002d72:	2b00      	cmp	r3, #0
10002d74:	d0fa      	beq.n	10002d6c <stdio_put_string+0x50>
10002d76:	f8d9 3000 	ldr.w	r3, [r9]
10002d7a:	b10b      	cbz	r3, 10002d80 <stdio_put_string+0x64>
10002d7c:	429c      	cmp	r4, r3
10002d7e:	d1f5      	bne.n	10002d6c <stdio_put_string+0x50>
10002d80:	4620      	mov	r0, r4
10002d82:	462a      	mov	r2, r5
10002d84:	4631      	mov	r1, r6
10002d86:	47b8      	blx	r7
10002d88:	6924      	ldr	r4, [r4, #16]
10002d8a:	2c00      	cmp	r4, #0
10002d8c:	d1f0      	bne.n	10002d70 <stdio_put_string+0x54>
10002d8e:	f1b8 0f00 	cmp.w	r8, #0
10002d92:	d126      	bne.n	10002de2 <stdio_put_string+0xc6>
10002d94:	4628      	mov	r0, r5
10002d96:	b002      	add	sp, #8
10002d98:	e8bd 87f0 	ldmia.w	sp!, {r4, r5, r6, r7, r8, r9, sl, pc}
10002d9c:	4f18      	ldr	r7, [pc, #96]	@ (10002e00 <stdio_put_string+0xe4>)
10002d9e:	e7dc      	b.n	10002d5a <stdio_put_string+0x3e>
10002da0:	f04f 0a0a 	mov.w	sl, #10
10002da4:	f8df 905c 	ldr.w	r9, [pc, #92]	@ 10002e04 <stdio_put_string+0xe8>
10002da8:	e002      	b.n	10002db0 <stdio_put_string+0x94>
10002daa:	6924      	ldr	r4, [r4, #16]
10002dac:	2c00      	cmp	r4, #0
10002dae:	d0ee      	beq.n	10002d8e <stdio_put_string+0x72>
10002db0:	6823      	ldr	r3, [r4, #0]
10002db2:	2b00      	cmp	r3, #0
10002db4:	d0f9      	beq.n	10002daa <stdio_put_string+0x8e>
10002db6:	f8d9 3000 	ldr.w	r3, [r9]
10002dba:	b10b      	cbz	r3, 10002dc0 <stdio_put_string+0xa4>
10002dbc:	42a3      	cmp	r3, r4
10002dbe:	d1f4      	bne.n	10002daa <stdio_put_string+0x8e>
10002dc0:	462a      	mov	r2, r5
10002dc2:	4631      	mov	r1, r6
10002dc4:	4620      	mov	r0, r4
10002dc6:	47b8      	blx	r7
10002dc8:	2201      	movs	r2, #1
10002dca:	4620      	mov	r0, r4
10002dcc:	f10d 0107 	add.w	r1, sp, #7
10002dd0:	f88d a007 	strb.w	sl, [sp, #7]
10002dd4:	47b8      	blx	r7
10002dd6:	e7e8      	b.n	10002daa <stdio_put_string+0x8e>
10002dd8:	4630      	mov	r0, r6
10002dda:	f002 fb7b 	bl	100054d4 <strlen>
10002dde:	4605      	mov	r5, r0
10002de0:	e7b9      	b.n	10002d56 <stdio_put_string+0x3a>
10002de2:	4804      	ldr	r0, [pc, #16]	@ (10002df4 <stdio_put_string+0xd8>)
10002de4:	f002 fd00 	bl	100057e8 <__mutex_exit_veneer>
10002de8:	4628      	mov	r0, r5
10002dea:	b002      	add	sp, #8
10002dec:	e8bd 87f0 	ldmia.w	sp!, {r4, r5, r6, r7, r8, r9, sl, pc}
10002df0:	000f4240 	.word	0x000f4240
10002df4:	20000eb8 	.word	0x20000eb8
10002df8:	10002c0d 	.word	0x10002c0d
10002dfc:	2000124c 	.word	0x2000124c
10002e00:	10002c05 	.word	0x10002c05
10002e04:	20001254 	.word	0x20001254

10002e08 <stdio_init_all>:
10002e08:	2000      	movs	r0, #0
10002e0a:	4770      	bx	lr

10002e0c <__wrap_putchar>:
10002e0c:	b5f0      	push	{r4, r5, r6, r7, lr}
10002e0e:	b083      	sub	sp, #12
10002e10:	4606      	mov	r6, r0
10002e12:	f88d 0007 	strb.w	r0, [sp, #7]
10002e16:	f7fd ffbb 	bl	10000d90 <time_us_64>
10002e1a:	f04f 35ff 	mov.w	r5, #4294967295
10002e1e:	f06f 4400 	mvn.w	r4, #2147483648	@ 0x80000000
10002e22:	4a17      	ldr	r2, [pc, #92]	@ (10002e80 <__wrap_putchar+0x74>)
10002e24:	1882      	adds	r2, r0, r2
10002e26:	f141 0300 	adc.w	r3, r1, #0
10002e2a:	4295      	cmp	r5, r2
10002e2c:	eb74 0103 	sbcs.w	r1, r4, r3
10002e30:	bf3c      	itt	cc
10002e32:	4623      	movcc	r3, r4
10002e34:	462a      	movcc	r2, r5
10002e36:	4813      	ldr	r0, [pc, #76]	@ (10002e84 <__wrap_putchar+0x78>)
10002e38:	f002 fcda 	bl	100057f0 <__mutex_try_enter_block_until_veneer>
10002e3c:	4b12      	ldr	r3, [pc, #72]	@ (10002e88 <__wrap_putchar+0x7c>)
10002e3e:	4607      	mov	r7, r0
10002e40:	681c      	ldr	r4, [r3, #0]
10002e42:	b19c      	cbz	r4, 10002e6c <__wrap_putchar+0x60>
10002e44:	4d11      	ldr	r5, [pc, #68]	@ (10002e8c <__wrap_putchar+0x80>)
10002e46:	e001      	b.n	10002e4c <__wrap_putchar+0x40>
10002e48:	6924      	ldr	r4, [r4, #16]
10002e4a:	b17c      	cbz	r4, 10002e6c <__wrap_putchar+0x60>
10002e4c:	6823      	ldr	r3, [r4, #0]
10002e4e:	2b00      	cmp	r3, #0
10002e50:	d0fa      	beq.n	10002e48 <__wrap_putchar+0x3c>
10002e52:	682b      	ldr	r3, [r5, #0]
10002e54:	b10b      	cbz	r3, 10002e5a <__wrap_putchar+0x4e>
10002e56:	429c      	cmp	r4, r3
10002e58:	d1f6      	bne.n	10002e48 <__wrap_putchar+0x3c>
10002e5a:	4620      	mov	r0, r4
10002e5c:	2201      	movs	r2, #1
10002e5e:	f10d 0107 	add.w	r1, sp, #7
10002e62:	f7ff fed3 	bl	10002c0c <stdio_out_chars_crlf>
10002e66:	6924      	ldr	r4, [r4, #16]
10002e68:	2c00      	cmp	r4, #0
10002e6a:	d1ef      	bne.n	10002e4c <__wrap_putchar+0x40>
10002e6c:	b917      	cbnz	r7, 10002e74 <__wrap_putchar+0x68>
10002e6e:	4630      	mov	r0, r6
10002e70:	b003      	add	sp, #12
10002e72:	bdf0      	pop	{r4, r5, r6, r7, pc}
10002e74:	4803      	ldr	r0, [pc, #12]	@ (10002e84 <__wrap_putchar+0x78>)
10002e76:	f002 fcb7 	bl	100057e8 <__mutex_exit_veneer>
10002e7a:	4630      	mov	r0, r6
10002e7c:	b003      	add	sp, #12
10002e7e:	bdf0      	pop	{r4, r5, r6, r7, pc}
10002e80:	000f4240 	.word	0x000f4240
10002e84:	20000eb8 	.word	0x20000eb8
10002e88:	2000124c 	.word	0x2000124c
10002e8c:	20001254 	.word	0x20001254

10002e90 <__wrap_puts>:
10002e90:	b538      	push	{r3, r4, r5, lr}
10002e92:	4604      	mov	r4, r0
10002e94:	f002 fb1e 	bl	100054d4 <strlen>
10002e98:	2301      	movs	r3, #1
10002e9a:	4605      	mov	r5, r0
10002e9c:	461a      	mov	r2, r3
10002e9e:	4620      	mov	r0, r4
10002ea0:	4629      	mov	r1, r5
10002ea2:	f7ff ff3b 	bl	10002d1c <stdio_put_string>
10002ea6:	4b08      	ldr	r3, [pc, #32]	@ (10002ec8 <__wrap_puts+0x38>)
10002ea8:	681c      	ldr	r4, [r3, #0]
10002eaa:	b12c      	cbz	r4, 10002eb8 <__wrap_puts+0x28>
10002eac:	6863      	ldr	r3, [r4, #4]
10002eae:	b12b      	cbz	r3, 10002ebc <__wrap_puts+0x2c>
10002eb0:	4798      	blx	r3
10002eb2:	6924      	ldr	r4, [r4, #16]
10002eb4:	2c00      	cmp	r4, #0
10002eb6:	d1f9      	bne.n	10002eac <__wrap_puts+0x1c>
10002eb8:	4628      	mov	r0, r5
10002eba:	bd38      	pop	{r3, r4, r5, pc}
10002ebc:	6924      	ldr	r4, [r4, #16]
10002ebe:	2c00      	cmp	r4, #0
10002ec0:	d1f4      	bne.n	10002eac <__wrap_puts+0x1c>
10002ec2:	4628      	mov	r0, r5
10002ec4:	bd38      	pop	{r3, r4, r5, pc}
10002ec6:	bf00      	nop
10002ec8:	2000124c 	.word	0x2000124c

10002ecc <__wrap_vprintf>:
10002ecc:	e92d 41f0 	stmdb	sp!, {r4, r5, r6, r7, r8, lr}
10002ed0:	b0a2      	sub	sp, #136	@ 0x88
10002ed2:	4604      	mov	r4, r0
10002ed4:	460d      	mov	r5, r1
10002ed6:	f7fd ff5b 	bl	10000d90 <time_us_64>
10002eda:	f04f 37ff 	mov.w	r7, #4294967295
10002ede:	f06f 4600 	mvn.w	r6, #2147483648	@ 0x80000000
10002ee2:	4a26      	ldr	r2, [pc, #152]	@ (10002f7c <__wrap_vprintf+0xb0>)
10002ee4:	f8df 80a4 	ldr.w	r8, [pc, #164]	@ 10002f8c <__wrap_vprintf+0xc0>
10002ee8:	1882      	adds	r2, r0, r2
10002eea:	f141 0300 	adc.w	r3, r1, #0
10002eee:	4297      	cmp	r7, r2
10002ef0:	eb76 0103 	sbcs.w	r1, r6, r3
10002ef4:	bf3c      	itt	cc
10002ef6:	463a      	movcc	r2, r7
10002ef8:	4633      	movcc	r3, r6
10002efa:	4821      	ldr	r0, [pc, #132]	@ (10002f80 <__wrap_vprintf+0xb4>)
10002efc:	f002 fc78 	bl	100057f0 <__mutex_try_enter_block_until_veneer>
10002f00:	2700      	movs	r7, #0
10002f02:	462b      	mov	r3, r5
10002f04:	4622      	mov	r2, r4
10002f06:	4606      	mov	r6, r0
10002f08:	a901      	add	r1, sp, #4
10002f0a:	481e      	ldr	r0, [pc, #120]	@ (10002f84 <__wrap_vprintf+0xb8>)
10002f0c:	9701      	str	r7, [sp, #4]
10002f0e:	f7ff fe1f 	bl	10002b50 <vfctprintf>
10002f12:	9b01      	ldr	r3, [sp, #4]
10002f14:	4605      	mov	r5, r0
10002f16:	f8d8 4000 	ldr.w	r4, [r8]
10002f1a:	b1c3      	cbz	r3, 10002f4e <__wrap_vprintf+0x82>
10002f1c:	2c00      	cmp	r4, #0
10002f1e:	d02b      	beq.n	10002f78 <__wrap_vprintf+0xac>
10002f20:	4f19      	ldr	r7, [pc, #100]	@ (10002f88 <__wrap_vprintf+0xbc>)
10002f22:	e001      	b.n	10002f28 <__wrap_vprintf+0x5c>
10002f24:	6924      	ldr	r4, [r4, #16]
10002f26:	b174      	cbz	r4, 10002f46 <__wrap_vprintf+0x7a>
10002f28:	6823      	ldr	r3, [r4, #0]
10002f2a:	2b00      	cmp	r3, #0
10002f2c:	d0fa      	beq.n	10002f24 <__wrap_vprintf+0x58>
10002f2e:	683b      	ldr	r3, [r7, #0]
10002f30:	b10b      	cbz	r3, 10002f36 <__wrap_vprintf+0x6a>
10002f32:	42a3      	cmp	r3, r4
10002f34:	d1f6      	bne.n	10002f24 <__wrap_vprintf+0x58>
10002f36:	4620      	mov	r0, r4
10002f38:	9a01      	ldr	r2, [sp, #4]
10002f3a:	a902      	add	r1, sp, #8
10002f3c:	f7ff fe66 	bl	10002c0c <stdio_out_chars_crlf>
10002f40:	6924      	ldr	r4, [r4, #16]
10002f42:	2c00      	cmp	r4, #0
10002f44:	d1f0      	bne.n	10002f28 <__wrap_vprintf+0x5c>
10002f46:	2300      	movs	r3, #0
10002f48:	f8d8 4000 	ldr.w	r4, [r8]
10002f4c:	9301      	str	r3, [sp, #4]
10002f4e:	b12c      	cbz	r4, 10002f5c <__wrap_vprintf+0x90>
10002f50:	6863      	ldr	r3, [r4, #4]
10002f52:	b143      	cbz	r3, 10002f66 <__wrap_vprintf+0x9a>
10002f54:	4798      	blx	r3
10002f56:	6924      	ldr	r4, [r4, #16]
10002f58:	2c00      	cmp	r4, #0
10002f5a:	d1f9      	bne.n	10002f50 <__wrap_vprintf+0x84>
10002f5c:	b92e      	cbnz	r6, 10002f6a <__wrap_vprintf+0x9e>
10002f5e:	4628      	mov	r0, r5
10002f60:	b022      	add	sp, #136	@ 0x88
10002f62:	e8bd 81f0 	ldmia.w	sp!, {r4, r5, r6, r7, r8, pc}
10002f66:	6924      	ldr	r4, [r4, #16]
10002f68:	e7f1      	b.n	10002f4e <__wrap_vprintf+0x82>
10002f6a:	4805      	ldr	r0, [pc, #20]	@ (10002f80 <__wrap_vprintf+0xb4>)
10002f6c:	f002 fc3c 	bl	100057e8 <__mutex_exit_veneer>
10002f70:	4628      	mov	r0, r5
10002f72:	b022      	add	sp, #136	@ 0x88
10002f74:	e8bd 81f0 	ldmia.w	sp!, {r4, r5, r6, r7, r8, pc}
10002f78:	9401      	str	r4, [sp, #4]
10002f7a:	e7ef      	b.n	10002f5c <__wrap_vprintf+0x90>
10002f7c:	000f4240 	.word	0x000f4240
10002f80:	20000eb8 	.word	0x20000eb8
10002f84:	10002cbd 	.word	0x10002cbd
10002f88:	20001254 	.word	0x20001254
10002f8c:	2000124c 	.word	0x2000124c

10002f90 <__wrap_printf>:
10002f90:	b40f      	push	{r0, r1, r2, r3}
10002f92:	b500      	push	{lr}
10002f94:	b083      	sub	sp, #12
10002f96:	a904      	add	r1, sp, #16
10002f98:	f851 0b04 	ldr.w	r0, [r1], #4
10002f9c:	9101      	str	r1, [sp, #4]
10002f9e:	f7ff ff95 	bl	10002ecc <__wrap_vprintf>
10002fa2:	b003      	add	sp, #12
10002fa4:	f85d eb04 	ldr.w	lr, [sp], #4
10002fa8:	b004      	add	sp, #16
10002faa:	4770      	bx	lr

10002fac <exception_set_exclusive_handler>:
10002fac:	b5f8      	push	{r3, r4, r5, r6, r7, lr}
10002fae:	4604      	mov	r4, r0
10002fb0:	460d      	mov	r5, r1
10002fb2:	f3ef 8710 	mrs	r7, PRIMASK
10002fb6:	b672      	cpsid	i
10002fb8:	4b0c      	ldr	r3, [pc, #48]	@ (10002fec <exception_set_exclusive_handler+0x40>)
10002fba:	689b      	ldr	r3, [r3, #8]
10002fbc:	f853 6020 	ldr.w	r6, [r3, r0, lsl #2]
10002fc0:	42b1      	cmp	r1, r6
10002fc2:	d004      	beq.n	10002fce <exception_set_exclusive_handler+0x22>
10002fc4:	4b0a      	ldr	r3, [pc, #40]	@ (10002ff0 <exception_set_exclusive_handler+0x44>)
10002fc6:	429e      	cmp	r6, r3
10002fc8:	d20b      	bcs.n	10002fe2 <exception_set_exclusive_handler+0x36>
10002fca:	f7fd fffb 	bl	10000fc4 <hard_assertion_failure>
10002fce:	4b07      	ldr	r3, [pc, #28]	@ (10002fec <exception_set_exclusive_handler+0x40>)
10002fd0:	689b      	ldr	r3, [r3, #8]
10002fd2:	f843 5024 	str.w	r5, [r3, r4, lsl #2]
10002fd6:	f3bf 8f5f 	dmb	sy
10002fda:	f387 8810 	msr	PRIMASK, r7
10002fde:	4630      	mov	r0, r6
10002fe0:	bdf8      	pop	{r3, r4, r5, r6, r7, pc}
10002fe2:	4b04      	ldr	r3, [pc, #16]	@ (10002ff4 <exception_set_exclusive_handler+0x48>)
10002fe4:	429e      	cmp	r6, r3
10002fe6:	d3f2      	bcc.n	10002fce <exception_set_exclusive_handler+0x22>
10002fe8:	e7ef      	b.n	10002fca <exception_set_exclusive_handler+0x1e>
10002fea:	bf00      	nop
10002fec:	e000ed00 	.word	0xe000ed00
10002ff0:	10000110 	.word	0x10000110
10002ff4:	1000011c 	.word	0x1000011c

10002ff8 <i2c_write_blocking_internal.constprop.0>:
10002ff8:	e92d 41f0 	stmdb	sp!, {r4, r5, r6, r7, r8, lr}
10002ffc:	2700      	movs	r7, #0
10002ffe:	2401      	movs	r4, #1
10003000:	4694      	mov	ip, r2
10003002:	6802      	ldr	r2, [r0, #0]
10003004:	4605      	mov	r5, r0
10003006:	66d7      	str	r7, [r2, #108]	@ 0x6c
10003008:	6051      	str	r1, [r2, #4]
1000300a:	66d4      	str	r4, [r2, #108]	@ 0x6c
1000300c:	1e1c      	subs	r4, r3, #0
1000300e:	4638      	mov	r0, r7
10003010:	f89d 6018 	ldrb.w	r6, [sp, #24]
10003014:	dd1e      	ble.n	10003054 <i2c_write_blocking_internal.constprop.0+0x5c>
10003016:	7929      	ldrb	r1, [r5, #4]
10003018:	f086 0701 	eor.w	r7, r6, #1
1000301c:	0289      	lsls	r1, r1, #10
1000301e:	027f      	lsls	r7, r7, #9
10003020:	f104 3eff 	add.w	lr, r4, #4294967295
10003024:	4570      	cmp	r0, lr
10003026:	bf0c      	ite	eq
10003028:	46b8      	moveq	r8, r7
1000302a:	f04f 0800 	movne.w	r8, #0
1000302e:	f81c 3b01 	ldrb.w	r3, [ip], #1
10003032:	430b      	orrs	r3, r1
10003034:	ea43 0308 	orr.w	r3, r3, r8
10003038:	6113      	str	r3, [r2, #16]
1000303a:	6b53      	ldr	r3, [r2, #52]	@ 0x34
1000303c:	06d9      	lsls	r1, r3, #27
1000303e:	d5fc      	bpl.n	1000303a <i2c_write_blocking_internal.constprop.0+0x42>
10003040:	f8d2 1080 	ldr.w	r1, [r2, #128]	@ 0x80
10003044:	b949      	cbnz	r1, 1000305a <i2c_write_blocking_internal.constprop.0+0x62>
10003046:	4570      	cmp	r0, lr
10003048:	d01c      	beq.n	10003084 <i2c_write_blocking_internal.constprop.0+0x8c>
1000304a:	3001      	adds	r0, #1
1000304c:	4284      	cmp	r4, r0
1000304e:	f04f 0100 	mov.w	r1, #0
10003052:	d1e7      	bne.n	10003024 <i2c_write_blocking_internal.constprop.0+0x2c>
10003054:	712e      	strb	r6, [r5, #4]
10003056:	e8bd 81f0 	ldmia.w	sp!, {r4, r5, r6, r7, r8, pc}
1000305a:	f04f 0801 	mov.w	r8, #1
1000305e:	6d53      	ldr	r3, [r2, #84]	@ 0x54
10003060:	6b53      	ldr	r3, [r2, #52]	@ 0x34
10003062:	059b      	lsls	r3, r3, #22
10003064:	d5fc      	bpl.n	10003060 <i2c_write_blocking_internal.constprop.0+0x68>
10003066:	6e13      	ldr	r3, [r2, #96]	@ 0x60
10003068:	f1b8 0f00 	cmp.w	r8, #0
1000306c:	d0ed      	beq.n	1000304a <i2c_write_blocking_internal.constprop.0+0x52>
1000306e:	b169      	cbz	r1, 1000308c <i2c_write_blocking_internal.constprop.0+0x94>
10003070:	07cb      	lsls	r3, r1, #31
10003072:	d40b      	bmi.n	1000308c <i2c_write_blocking_internal.constprop.0+0x94>
10003074:	f011 0f08 	tst.w	r1, #8
10003078:	bf08      	it	eq
1000307a:	f04f 30ff 	moveq.w	r0, #4294967295
1000307e:	712e      	strb	r6, [r5, #4]
10003080:	e8bd 81f0 	ldmia.w	sp!, {r4, r5, r6, r7, r8, pc}
10003084:	2e00      	cmp	r6, #0
10003086:	d1e0      	bne.n	1000304a <i2c_write_blocking_internal.constprop.0+0x52>
10003088:	46b0      	mov	r8, r6
1000308a:	e7e9      	b.n	10003060 <i2c_write_blocking_internal.constprop.0+0x68>
1000308c:	f04f 30ff 	mov.w	r0, #4294967295
10003090:	e7e0      	b.n	10003054 <i2c_write_blocking_internal.constprop.0+0x5c>
10003092:	bf00      	nop

10003094 <i2c_set_baudrate>:
10003094:	b5f8      	push	{r3, r4, r5, r6, r7, lr}
10003096:	4604      	mov	r4, r0
10003098:	2005      	movs	r0, #5
1000309a:	460f      	mov	r7, r1
1000309c:	f7fd fefc 	bl	10000e98 <clock_get_hz>
100030a0:	eb00 0c57 	add.w	ip, r0, r7, lsr #1
100030a4:	fbbc fcf7 	udiv	ip, ip, r7
100030a8:	4d20      	ldr	r5, [pc, #128]	@ (1000312c <i2c_set_baudrate+0x98>)
100030aa:	eb0c 024c 	add.w	r2, ip, ip, lsl #1
100030ae:	fba5 6502 	umull	r6, r5, r5, r2
100030b2:	491f      	ldr	r1, [pc, #124]	@ (10003130 <i2c_set_baudrate+0x9c>)
100030b4:	08ae      	lsrs	r6, r5, #2
100030b6:	428f      	cmp	r7, r1
100030b8:	eb00 0340 	add.w	r3, r0, r0, lsl #1
100030bc:	ebac 0595 	sub.w	r5, ip, r5, lsr #2
100030c0:	d82e      	bhi.n	10003120 <i2c_set_baudrate+0x8c>
100030c2:	f101 41d6 	add.w	r1, r1, #1795162112	@ 0x6b000000
100030c6:	f501 01a1 	add.w	r1, r1, #5275648	@ 0x508000
100030ca:	f601 012c 	addw	r1, r1, #2092	@ 0x82c
100030ce:	fba1 1303 	umull	r1, r3, r1, r3
100030d2:	0d9b      	lsrs	r3, r3, #22
100030d4:	3301      	adds	r3, #1
100030d6:	2100      	movs	r1, #0
100030d8:	2a4f      	cmp	r2, #79	@ 0x4f
100030da:	bf98      	it	ls
100030dc:	2201      	movls	r2, #1
100030de:	6824      	ldr	r4, [r4, #0]
100030e0:	fbb0 f0fc 	udiv	r0, r0, ip
100030e4:	66e1      	str	r1, [r4, #108]	@ 0x6c
100030e6:	6821      	ldr	r1, [r4, #0]
100030e8:	f504 5780 	add.w	r7, r4, #4096	@ 0x1000
100030ec:	f081 0104 	eor.w	r1, r1, #4
100030f0:	f001 0106 	and.w	r1, r1, #6
100030f4:	6039      	str	r1, [r7, #0]
100030f6:	bf88      	it	hi
100030f8:	490c      	ldrhi	r1, [pc, #48]	@ (1000312c <i2c_set_baudrate+0x98>)
100030fa:	61e5      	str	r5, [r4, #28]
100030fc:	bf84      	itt	hi
100030fe:	fba1 1202 	umullhi	r1, r2, r1, r2
10003102:	0992      	lsrhi	r2, r2, #6
10003104:	6226      	str	r6, [r4, #32]
10003106:	f8c4 20a0 	str.w	r2, [r4, #160]	@ 0xa0
1000310a:	4622      	mov	r2, r4
1000310c:	2101      	movs	r1, #1
1000310e:	f852 5f7c 	ldr.w	r5, [r2, #124]!
10003112:	406b      	eors	r3, r5
10003114:	b29b      	uxth	r3, r3
10003116:	f502 5280 	add.w	r2, r2, #4096	@ 0x1000
1000311a:	6013      	str	r3, [r2, #0]
1000311c:	66e1      	str	r1, [r4, #108]	@ 0x6c
1000311e:	bdf8      	pop	{r3, r4, r5, r6, r7, pc}
10003120:	4904      	ldr	r1, [pc, #16]	@ (10003134 <i2c_set_baudrate+0xa0>)
10003122:	fba1 1303 	umull	r1, r3, r1, r3
10003126:	0ddb      	lsrs	r3, r3, #23
10003128:	3301      	adds	r3, #1
1000312a:	e7d4      	b.n	100030d6 <i2c_set_baudrate+0x42>
1000312c:	cccccccd 	.word	0xcccccccd
10003130:	000f423f 	.word	0x000f423f
10003134:	55e63b89 	.word	0x55e63b89

10003138 <i2c_init>:
10003138:	4a0e      	ldr	r2, [pc, #56]	@ (10003174 <i2c_init+0x3c>)
1000313a:	b430      	push	{r4, r5}
1000313c:	4290      	cmp	r0, r2
1000313e:	bf14      	ite	ne
10003140:	2220      	movne	r2, #32
10003142:	2210      	moveq	r2, #16
10003144:	4d0c      	ldr	r5, [pc, #48]	@ (10003178 <i2c_init+0x40>)
10003146:	4b0d      	ldr	r3, [pc, #52]	@ (1000317c <i2c_init+0x44>)
10003148:	4c0d      	ldr	r4, [pc, #52]	@ (10003180 <i2c_init+0x48>)
1000314a:	602a      	str	r2, [r5, #0]
1000314c:	601a      	str	r2, [r3, #0]
1000314e:	68a3      	ldr	r3, [r4, #8]
10003150:	ea32 0303 	bics.w	r3, r2, r3
10003154:	d1fb      	bne.n	1000314e <i2c_init+0x16>
10003156:	f240 1565 	movw	r5, #357	@ 0x165
1000315a:	2403      	movs	r4, #3
1000315c:	6802      	ldr	r2, [r0, #0]
1000315e:	7103      	strb	r3, [r0, #4]
10003160:	66d3      	str	r3, [r2, #108]	@ 0x6c
10003162:	6015      	str	r5, [r2, #0]
10003164:	63d3      	str	r3, [r2, #60]	@ 0x3c
10003166:	6393      	str	r3, [r2, #56]	@ 0x38
10003168:	f8c2 4088 	str.w	r4, [r2, #136]	@ 0x88
1000316c:	bc30      	pop	{r4, r5}
1000316e:	f7ff bf91 	b.w	10003094 <i2c_set_baudrate>
10003172:	bf00      	nop
10003174:	20000950 	.word	0x20000950
10003178:	40022000 	.word	0x40022000
1000317c:	40023000 	.word	0x40023000
10003180:	40020000 	.word	0x40020000

10003184 <i2c_write_blocking>:
10003184:	b410      	push	{r4}
10003186:	f89d 4004 	ldrb.w	r4, [sp, #4]
1000318a:	9401      	str	r4, [sp, #4]
1000318c:	f85d 4b04 	ldr.w	r4, [sp], #4
10003190:	f7ff bf32 	b.w	10002ff8 <i2c_write_blocking_internal.constprop.0>

10003194 <adc_init>:
10003194:	2301      	movs	r3, #1
10003196:	4807      	ldr	r0, [pc, #28]	@ (100031b4 <adc_init+0x20>)
10003198:	4907      	ldr	r1, [pc, #28]	@ (100031b8 <adc_init+0x24>)
1000319a:	4a08      	ldr	r2, [pc, #32]	@ (100031bc <adc_init+0x28>)
1000319c:	6003      	str	r3, [r0, #0]
1000319e:	600b      	str	r3, [r1, #0]
100031a0:	6893      	ldr	r3, [r2, #8]
100031a2:	07d9      	lsls	r1, r3, #31
100031a4:	d5fc      	bpl.n	100031a0 <adc_init+0xc>
100031a6:	2301      	movs	r3, #1
100031a8:	4a05      	ldr	r2, [pc, #20]	@ (100031c0 <adc_init+0x2c>)
100031aa:	6013      	str	r3, [r2, #0]
100031ac:	6813      	ldr	r3, [r2, #0]
100031ae:	05db      	lsls	r3, r3, #23
100031b0:	d5fc      	bpl.n	100031ac <adc_init+0x18>
100031b2:	4770      	bx	lr
100031b4:	40022000 	.word	0x40022000
100031b8:	40023000 	.word	0x40023000
100031bc:	40020000 	.word	0x40020000
100031c0:	400a0000 	.word	0x400a0000

100031c4 <prvAddNewTaskToReadyList>:
100031c4:	e92d 41f0 	stmdb	sp!, {r4, r5, r6, r7, r8, lr}
100031c8:	4604      	mov	r4, r0
100031ca:	f000 ffb5 	bl	10004138 <vPortEnterCritical>
100031ce:	4a36      	ldr	r2, [pc, #216]	@ (100032a8 <prvAddNewTaskToReadyList+0xe4>)
100031d0:	4e36      	ldr	r6, [pc, #216]	@ (100032ac <prvAddNewTaskToReadyList+0xe8>)
100031d2:	6813      	ldr	r3, [r2, #0]
100031d4:	3301      	adds	r3, #1
100031d6:	6013      	str	r3, [r2, #0]
100031d8:	6833      	ldr	r3, [r6, #0]
100031da:	2b00      	cmp	r3, #0
100031dc:	d034      	beq.n	10003248 <prvAddNewTaskToReadyList+0x84>
100031de:	4f34      	ldr	r7, [pc, #208]	@ (100032b0 <prvAddNewTaskToReadyList+0xec>)
100031e0:	6ae3      	ldr	r3, [r4, #44]	@ 0x2c
100031e2:	683a      	ldr	r2, [r7, #0]
100031e4:	b34a      	cbz	r2, 1000323a <prvAddNewTaskToReadyList+0x76>
100031e6:	4d33      	ldr	r5, [pc, #204]	@ (100032b4 <prvAddNewTaskToReadyList+0xf0>)
100031e8:	4933      	ldr	r1, [pc, #204]	@ (100032b8 <prvAddNewTaskToReadyList+0xf4>)
100031ea:	4834      	ldr	r0, [pc, #208]	@ (100032bc <prvAddNewTaskToReadyList+0xf8>)
100031ec:	680a      	ldr	r2, [r1, #0]
100031ee:	f104 0c04 	add.w	ip, r4, #4
100031f2:	3201      	adds	r2, #1
100031f4:	600a      	str	r2, [r1, #0]
100031f6:	6802      	ldr	r2, [r0, #0]
100031f8:	429a      	cmp	r2, r3
100031fa:	bf38      	it	cc
100031fc:	6003      	strcc	r3, [r0, #0]
100031fe:	eb03 0383 	add.w	r3, r3, r3, lsl #2
10003202:	eb05 0083 	add.w	r0, r5, r3, lsl #2
10003206:	6841      	ldr	r1, [r0, #4]
10003208:	009b      	lsls	r3, r3, #2
1000320a:	58ea      	ldr	r2, [r5, r3]
1000320c:	f8d1 e008 	ldr.w	lr, [r1, #8]
10003210:	60a1      	str	r1, [r4, #8]
10003212:	f8c4 e00c 	str.w	lr, [r4, #12]
10003216:	3201      	adds	r2, #1
10003218:	f8ce c004 	str.w	ip, [lr, #4]
1000321c:	f8c1 c008 	str.w	ip, [r1, #8]
10003220:	6160      	str	r0, [r4, #20]
10003222:	50ea      	str	r2, [r5, r3]
10003224:	f000 ff96 	bl	10004154 <vPortExitCritical>
10003228:	683b      	ldr	r3, [r7, #0]
1000322a:	b123      	cbz	r3, 10003236 <prvAddNewTaskToReadyList+0x72>
1000322c:	6832      	ldr	r2, [r6, #0]
1000322e:	6ae3      	ldr	r3, [r4, #44]	@ 0x2c
10003230:	6ad2      	ldr	r2, [r2, #44]	@ 0x2c
10003232:	429a      	cmp	r2, r3
10003234:	d310      	bcc.n	10003258 <prvAddNewTaskToReadyList+0x94>
10003236:	e8bd 81f0 	ldmia.w	sp!, {r4, r5, r6, r7, r8, pc}
1000323a:	6832      	ldr	r2, [r6, #0]
1000323c:	4d1d      	ldr	r5, [pc, #116]	@ (100032b4 <prvAddNewTaskToReadyList+0xf0>)
1000323e:	6ad2      	ldr	r2, [r2, #44]	@ 0x2c
10003240:	429a      	cmp	r2, r3
10003242:	bf98      	it	ls
10003244:	6034      	strls	r4, [r6, #0]
10003246:	e7cf      	b.n	100031e8 <prvAddNewTaskToReadyList+0x24>
10003248:	6034      	str	r4, [r6, #0]
1000324a:	6813      	ldr	r3, [r2, #0]
1000324c:	2b01      	cmp	r3, #1
1000324e:	d007      	beq.n	10003260 <prvAddNewTaskToReadyList+0x9c>
10003250:	6ae3      	ldr	r3, [r4, #44]	@ 0x2c
10003252:	4d18      	ldr	r5, [pc, #96]	@ (100032b4 <prvAddNewTaskToReadyList+0xf0>)
10003254:	4f16      	ldr	r7, [pc, #88]	@ (100032b0 <prvAddNewTaskToReadyList+0xec>)
10003256:	e7c7      	b.n	100031e8 <prvAddNewTaskToReadyList+0x24>
10003258:	e8bd 41f0 	ldmia.w	sp!, {r4, r5, r6, r7, r8, lr}
1000325c:	f000 bf60 	b.w	10004120 <vPortYield>
10003260:	4d14      	ldr	r5, [pc, #80]	@ (100032b4 <prvAddNewTaskToReadyList+0xf0>)
10003262:	462f      	mov	r7, r5
10003264:	f105 0878 	add.w	r8, r5, #120	@ 0x78
10003268:	4638      	mov	r0, r7
1000326a:	3714      	adds	r7, #20
1000326c:	f001 f8dc 	bl	10004428 <vListInitialise>
10003270:	4547      	cmp	r7, r8
10003272:	d1f9      	bne.n	10003268 <prvAddNewTaskToReadyList+0xa4>
10003274:	f8df 8060 	ldr.w	r8, [pc, #96]	@ 100032d8 <prvAddNewTaskToReadyList+0x114>
10003278:	4f11      	ldr	r7, [pc, #68]	@ (100032c0 <prvAddNewTaskToReadyList+0xfc>)
1000327a:	4640      	mov	r0, r8
1000327c:	f001 f8d4 	bl	10004428 <vListInitialise>
10003280:	4638      	mov	r0, r7
10003282:	f001 f8d1 	bl	10004428 <vListInitialise>
10003286:	480f      	ldr	r0, [pc, #60]	@ (100032c4 <prvAddNewTaskToReadyList+0x100>)
10003288:	f001 f8ce 	bl	10004428 <vListInitialise>
1000328c:	480e      	ldr	r0, [pc, #56]	@ (100032c8 <prvAddNewTaskToReadyList+0x104>)
1000328e:	f001 f8cb 	bl	10004428 <vListInitialise>
10003292:	480e      	ldr	r0, [pc, #56]	@ (100032cc <prvAddNewTaskToReadyList+0x108>)
10003294:	f001 f8c8 	bl	10004428 <vListInitialise>
10003298:	4b0d      	ldr	r3, [pc, #52]	@ (100032d0 <prvAddNewTaskToReadyList+0x10c>)
1000329a:	f8c3 8000 	str.w	r8, [r3]
1000329e:	4b0d      	ldr	r3, [pc, #52]	@ (100032d4 <prvAddNewTaskToReadyList+0x110>)
100032a0:	601f      	str	r7, [r3, #0]
100032a2:	6ae3      	ldr	r3, [r4, #44]	@ 0x2c
100032a4:	4f02      	ldr	r7, [pc, #8]	@ (100032b0 <prvAddNewTaskToReadyList+0xec>)
100032a6:	e79f      	b.n	100031e8 <prvAddNewTaskToReadyList+0x24>
100032a8:	2000133c 	.word	0x2000133c
100032ac:	200012a0 	.word	0x200012a0
100032b0:	200013cc 	.word	0x200013cc
100032b4:	200012b4 	.word	0x200012b4
100032b8:	20001348 	.word	0x20001348
100032bc:	2000134c 	.word	0x2000134c
100032c0:	2000138c 	.word	0x2000138c
100032c4:	200013b8 	.word	0x200013b8
100032c8:	200013e4 	.word	0x200013e4
100032cc:	200013d0 	.word	0x200013d0
100032d0:	200012a8 	.word	0x200012a8
100032d4:	200012ac 	.word	0x200012ac
100032d8:	20001378 	.word	0x20001378

100032dc <prvIdleTask>:
100032dc:	b580      	push	{r7, lr}
100032de:	4d12      	ldr	r5, [pc, #72]	@ (10003328 <prvIdleTask+0x4c>)
100032e0:	4f12      	ldr	r7, [pc, #72]	@ (1000332c <prvIdleTask+0x50>)
100032e2:	4e13      	ldr	r6, [pc, #76]	@ (10003330 <prvIdleTask+0x54>)
100032e4:	f8df 804c 	ldr.w	r8, [pc, #76]	@ 10003334 <prvIdleTask+0x58>
100032e8:	e014      	b.n	10003314 <prvIdleTask+0x38>
100032ea:	f000 ff25 	bl	10004138 <vPortEnterCritical>
100032ee:	68fb      	ldr	r3, [r7, #12]
100032f0:	68dc      	ldr	r4, [r3, #12]
100032f2:	1d20      	adds	r0, r4, #4
100032f4:	f001 f8ce 	bl	10004494 <uxListRemove>
100032f8:	6833      	ldr	r3, [r6, #0]
100032fa:	3b01      	subs	r3, #1
100032fc:	6033      	str	r3, [r6, #0]
100032fe:	682b      	ldr	r3, [r5, #0]
10003300:	3b01      	subs	r3, #1
10003302:	602b      	str	r3, [r5, #0]
10003304:	f000 ff26 	bl	10004154 <vPortExitCritical>
10003308:	6b20      	ldr	r0, [r4, #48]	@ 0x30
1000330a:	f000 fec7 	bl	1000409c <vPortFree>
1000330e:	4620      	mov	r0, r4
10003310:	f000 fec4 	bl	1000409c <vPortFree>
10003314:	682b      	ldr	r3, [r5, #0]
10003316:	2b00      	cmp	r3, #0
10003318:	d1e7      	bne.n	100032ea <prvIdleTask+0xe>
1000331a:	f8d8 3000 	ldr.w	r3, [r8]
1000331e:	2b01      	cmp	r3, #1
10003320:	d9f8      	bls.n	10003314 <prvIdleTask+0x38>
10003322:	f000 fefd 	bl	10004120 <vPortYield>
10003326:	e7f5      	b.n	10003314 <prvIdleTask+0x38>
10003328:	20001340 	.word	0x20001340
1000332c:	200013e4 	.word	0x200013e4
10003330:	2000133c 	.word	0x2000133c
10003334:	200012b4 	.word	0x200012b4

10003338 <xTaskIncrementTick.part.0>:
10003338:	e92d 4ff0 	stmdb	sp!, {r4, r5, r6, r7, r8, r9, sl, fp, lr}
1000333c:	4b4c      	ldr	r3, [pc, #304]	@ (10003470 <xTaskIncrementTick.part.0+0x138>)
1000333e:	b083      	sub	sp, #12
10003340:	681d      	ldr	r5, [r3, #0]
10003342:	3501      	adds	r5, #1
10003344:	601d      	str	r5, [r3, #0]
10003346:	2d00      	cmp	r5, #0
10003348:	d067      	beq.n	1000341a <xTaskIncrementTick.part.0+0xe2>
1000334a:	494a      	ldr	r1, [pc, #296]	@ (10003474 <xTaskIncrementTick.part.0+0x13c>)
1000334c:	680b      	ldr	r3, [r1, #0]
1000334e:	429d      	cmp	r5, r3
10003350:	d377      	bcc.n	10003442 <xTaskIncrementTick.part.0+0x10a>
10003352:	4e49      	ldr	r6, [pc, #292]	@ (10003478 <xTaskIncrementTick.part.0+0x140>)
10003354:	6833      	ldr	r3, [r6, #0]
10003356:	6818      	ldr	r0, [r3, #0]
10003358:	2800      	cmp	r0, #0
1000335a:	f000 8084 	beq.w	10003466 <xTaskIncrementTick.part.0+0x12e>
1000335e:	2000      	movs	r0, #0
10003360:	46aa      	mov	sl, r5
10003362:	4607      	mov	r7, r0
10003364:	4681      	mov	r9, r0
10003366:	f8df e128 	ldr.w	lr, [pc, #296]	@ 10003490 <xTaskIncrementTick.part.0+0x158>
1000336a:	4c44      	ldr	r4, [pc, #272]	@ (1000347c <xTaskIncrementTick.part.0+0x144>)
1000336c:	9101      	str	r1, [sp, #4]
1000336e:	e047      	b.n	10003400 <xTaskIncrementTick.part.0+0xc8>
10003370:	6958      	ldr	r0, [r3, #20]
10003372:	e9d3 2c02 	ldrd	r2, ip, [r3, #8]
10003376:	f8c2 c008 	str.w	ip, [r2, #8]
1000337a:	f8cc 2004 	str.w	r2, [ip, #4]
1000337e:	6842      	ldr	r2, [r0, #4]
10003380:	428a      	cmp	r2, r1
10003382:	6802      	ldr	r2, [r0, #0]
10003384:	bf08      	it	eq
10003386:	f8c0 c004 	streq.w	ip, [r0, #4]
1000338a:	3a01      	subs	r2, #1
1000338c:	615f      	str	r7, [r3, #20]
1000338e:	6002      	str	r2, [r0, #0]
10003390:	6a98      	ldr	r0, [r3, #40]	@ 0x28
10003392:	b170      	cbz	r0, 100033b2 <xTaskIncrementTick.part.0+0x7a>
10003394:	e9d3 2c07 	ldrd	r2, ip, [r3, #28]
10003398:	f8c2 c008 	str.w	ip, [r2, #8]
1000339c:	f8cc 2004 	str.w	r2, [ip, #4]
100033a0:	6842      	ldr	r2, [r0, #4]
100033a2:	42aa      	cmp	r2, r5
100033a4:	6802      	ldr	r2, [r0, #0]
100033a6:	bf08      	it	eq
100033a8:	f8c0 c004 	streq.w	ip, [r0, #4]
100033ac:	3a01      	subs	r2, #1
100033ae:	629f      	str	r7, [r3, #40]	@ 0x28
100033b0:	6002      	str	r2, [r0, #0]
100033b2:	6ada      	ldr	r2, [r3, #44]	@ 0x2c
100033b4:	f8de 0000 	ldr.w	r0, [lr]
100033b8:	eb02 0c82 	add.w	ip, r2, r2, lsl #2
100033bc:	eb04 088c 	add.w	r8, r4, ip, lsl #2
100033c0:	4282      	cmp	r2, r0
100033c2:	f8d8 0004 	ldr.w	r0, [r8, #4]
100033c6:	f854 502c 	ldr.w	r5, [r4, ip, lsl #2]
100033ca:	f8d0 b008 	ldr.w	fp, [r0, #8]
100033ce:	6098      	str	r0, [r3, #8]
100033d0:	f8c3 b00c 	str.w	fp, [r3, #12]
100033d4:	f8cb 1004 	str.w	r1, [fp, #4]
100033d8:	6081      	str	r1, [r0, #8]
100033da:	f8c3 8014 	str.w	r8, [r3, #20]
100033de:	4b28      	ldr	r3, [pc, #160]	@ (10003480 <xTaskIncrementTick.part.0+0x148>)
100033e0:	bf88      	it	hi
100033e2:	f8ce 2000 	strhi.w	r2, [lr]
100033e6:	6819      	ldr	r1, [r3, #0]
100033e8:	3501      	adds	r5, #1
100033ea:	6833      	ldr	r3, [r6, #0]
100033ec:	f844 502c 	str.w	r5, [r4, ip, lsl #2]
100033f0:	6ac9      	ldr	r1, [r1, #44]	@ 0x2c
100033f2:	681b      	ldr	r3, [r3, #0]
100033f4:	428a      	cmp	r2, r1
100033f6:	bf88      	it	hi
100033f8:	f049 0901 	orrhi.w	r9, r9, #1
100033fc:	2b00      	cmp	r3, #0
100033fe:	d030      	beq.n	10003462 <xTaskIncrementTick.part.0+0x12a>
10003400:	6833      	ldr	r3, [r6, #0]
10003402:	68db      	ldr	r3, [r3, #12]
10003404:	68db      	ldr	r3, [r3, #12]
10003406:	685a      	ldr	r2, [r3, #4]
10003408:	1d19      	adds	r1, r3, #4
1000340a:	4592      	cmp	sl, r2
1000340c:	f103 0518 	add.w	r5, r3, #24
10003410:	d2ae      	bcs.n	10003370 <xTaskIncrementTick.part.0+0x38>
10003412:	9901      	ldr	r1, [sp, #4]
10003414:	4648      	mov	r0, r9
10003416:	600a      	str	r2, [r1, #0]
10003418:	e014      	b.n	10003444 <xTaskIncrementTick.part.0+0x10c>
1000341a:	4b17      	ldr	r3, [pc, #92]	@ (10003478 <xTaskIncrementTick.part.0+0x140>)
1000341c:	4a19      	ldr	r2, [pc, #100]	@ (10003484 <xTaskIncrementTick.part.0+0x14c>)
1000341e:	6818      	ldr	r0, [r3, #0]
10003420:	6811      	ldr	r1, [r2, #0]
10003422:	6019      	str	r1, [r3, #0]
10003424:	4918      	ldr	r1, [pc, #96]	@ (10003488 <xTaskIncrementTick.part.0+0x150>)
10003426:	6010      	str	r0, [r2, #0]
10003428:	680a      	ldr	r2, [r1, #0]
1000342a:	3201      	adds	r2, #1
1000342c:	600a      	str	r2, [r1, #0]
1000342e:	681a      	ldr	r2, [r3, #0]
10003430:	6812      	ldr	r2, [r2, #0]
10003432:	b982      	cbnz	r2, 10003456 <xTaskIncrementTick.part.0+0x11e>
10003434:	f04f 33ff 	mov.w	r3, #4294967295
10003438:	490e      	ldr	r1, [pc, #56]	@ (10003474 <xTaskIncrementTick.part.0+0x13c>)
1000343a:	600b      	str	r3, [r1, #0]
1000343c:	680b      	ldr	r3, [r1, #0]
1000343e:	429d      	cmp	r5, r3
10003440:	d287      	bcs.n	10003352 <xTaskIncrementTick.part.0+0x1a>
10003442:	2000      	movs	r0, #0
10003444:	4b11      	ldr	r3, [pc, #68]	@ (1000348c <xTaskIncrementTick.part.0+0x154>)
10003446:	681b      	ldr	r3, [r3, #0]
10003448:	2b00      	cmp	r3, #0
1000344a:	bf18      	it	ne
1000344c:	f040 0001 	orrne.w	r0, r0, #1
10003450:	b003      	add	sp, #12
10003452:	e8bd 8ff0 	ldmia.w	sp!, {r4, r5, r6, r7, r8, r9, sl, fp, pc}
10003456:	681b      	ldr	r3, [r3, #0]
10003458:	4906      	ldr	r1, [pc, #24]	@ (10003474 <xTaskIncrementTick.part.0+0x13c>)
1000345a:	68db      	ldr	r3, [r3, #12]
1000345c:	681b      	ldr	r3, [r3, #0]
1000345e:	600b      	str	r3, [r1, #0]
10003460:	e774      	b.n	1000334c <xTaskIncrementTick.part.0+0x14>
10003462:	4648      	mov	r0, r9
10003464:	9901      	ldr	r1, [sp, #4]
10003466:	f04f 33ff 	mov.w	r3, #4294967295
1000346a:	600b      	str	r3, [r1, #0]
1000346c:	e7ea      	b.n	10003444 <xTaskIncrementTick.part.0+0x10c>
1000346e:	bf00      	nop
10003470:	200013f8 	.word	0x200013f8
10003474:	200013ac 	.word	0x200013ac
10003478:	200012a8 	.word	0x200012a8
1000347c:	200012b4 	.word	0x200012b4
10003480:	200012a0 	.word	0x200012a0
10003484:	200012ac 	.word	0x200012ac
10003488:	200013b0 	.word	0x200013b0
1000348c:	20001404 	.word	0x20001404
10003490:	2000134c 	.word	0x2000134c

10003494 <xTaskCreate>:
10003494:	e92d 43f8 	stmdb	sp!, {r3, r4, r5, r6, r7, r8, r9, lr}
10003498:	0095      	lsls	r5, r2, #2
1000349a:	4680      	mov	r8, r0
1000349c:	4628      	mov	r0, r5
1000349e:	460f      	mov	r7, r1
100034a0:	4699      	mov	r9, r3
100034a2:	f000 fdef 	bl	10004084 <pvPortMalloc>
100034a6:	2800      	cmp	r0, #0
100034a8:	d072      	beq.n	10003590 <xTaskCreate+0xfc>
100034aa:	4606      	mov	r6, r0
100034ac:	2070      	movs	r0, #112	@ 0x70
100034ae:	f000 fde9 	bl	10004084 <pvPortMalloc>
100034b2:	4604      	mov	r4, r0
100034b4:	2800      	cmp	r0, #0
100034b6:	d068      	beq.n	1000358a <xTaskCreate+0xf6>
100034b8:	3d04      	subs	r5, #4
100034ba:	2270      	movs	r2, #112	@ 0x70
100034bc:	2100      	movs	r1, #0
100034be:	4435      	add	r5, r6
100034c0:	f001 ff1a 	bl	100052f8 <memset>
100034c4:	f025 0507 	bic.w	r5, r5, #7
100034c8:	6326      	str	r6, [r4, #48]	@ 0x30
100034ca:	2f00      	cmp	r7, #0
100034cc:	d03b      	beq.n	10003546 <xTaskCreate+0xb2>
100034ce:	783b      	ldrb	r3, [r7, #0]
100034d0:	f884 3034 	strb.w	r3, [r4, #52]	@ 0x34
100034d4:	2b00      	cmp	r3, #0
100034d6:	d036      	beq.n	10003546 <xTaskCreate+0xb2>
100034d8:	787b      	ldrb	r3, [r7, #1]
100034da:	f884 3035 	strb.w	r3, [r4, #53]	@ 0x35
100034de:	b393      	cbz	r3, 10003546 <xTaskCreate+0xb2>
100034e0:	78bb      	ldrb	r3, [r7, #2]
100034e2:	f884 3036 	strb.w	r3, [r4, #54]	@ 0x36
100034e6:	b373      	cbz	r3, 10003546 <xTaskCreate+0xb2>
100034e8:	78fb      	ldrb	r3, [r7, #3]
100034ea:	f884 3037 	strb.w	r3, [r4, #55]	@ 0x37
100034ee:	b353      	cbz	r3, 10003546 <xTaskCreate+0xb2>
100034f0:	793b      	ldrb	r3, [r7, #4]
100034f2:	f884 3038 	strb.w	r3, [r4, #56]	@ 0x38
100034f6:	b333      	cbz	r3, 10003546 <xTaskCreate+0xb2>
100034f8:	797b      	ldrb	r3, [r7, #5]
100034fa:	f884 3039 	strb.w	r3, [r4, #57]	@ 0x39
100034fe:	b313      	cbz	r3, 10003546 <xTaskCreate+0xb2>
10003500:	79bb      	ldrb	r3, [r7, #6]
10003502:	f884 303a 	strb.w	r3, [r4, #58]	@ 0x3a
10003506:	b1f3      	cbz	r3, 10003546 <xTaskCreate+0xb2>
10003508:	79fb      	ldrb	r3, [r7, #7]
1000350a:	f884 303b 	strb.w	r3, [r4, #59]	@ 0x3b
1000350e:	b1d3      	cbz	r3, 10003546 <xTaskCreate+0xb2>
10003510:	7a3b      	ldrb	r3, [r7, #8]
10003512:	f884 303c 	strb.w	r3, [r4, #60]	@ 0x3c
10003516:	b1b3      	cbz	r3, 10003546 <xTaskCreate+0xb2>
10003518:	7a7b      	ldrb	r3, [r7, #9]
1000351a:	f884 303d 	strb.w	r3, [r4, #61]	@ 0x3d
1000351e:	b193      	cbz	r3, 10003546 <xTaskCreate+0xb2>
10003520:	7abb      	ldrb	r3, [r7, #10]
10003522:	f884 303e 	strb.w	r3, [r4, #62]	@ 0x3e
10003526:	b173      	cbz	r3, 10003546 <xTaskCreate+0xb2>
10003528:	7afb      	ldrb	r3, [r7, #11]
1000352a:	f884 303f 	strb.w	r3, [r4, #63]	@ 0x3f
1000352e:	b153      	cbz	r3, 10003546 <xTaskCreate+0xb2>
10003530:	7b3b      	ldrb	r3, [r7, #12]
10003532:	f884 3040 	strb.w	r3, [r4, #64]	@ 0x40
10003536:	b133      	cbz	r3, 10003546 <xTaskCreate+0xb2>
10003538:	7b7b      	ldrb	r3, [r7, #13]
1000353a:	f884 3041 	strb.w	r3, [r4, #65]	@ 0x41
1000353e:	b113      	cbz	r3, 10003546 <xTaskCreate+0xb2>
10003540:	7bbb      	ldrb	r3, [r7, #14]
10003542:	f884 3042 	strb.w	r3, [r4, #66]	@ 0x42
10003546:	9f08      	ldr	r7, [sp, #32]
10003548:	1d20      	adds	r0, r4, #4
1000354a:	2f05      	cmp	r7, #5
1000354c:	bf28      	it	cs
1000354e:	2705      	movcs	r7, #5
10003550:	62e7      	str	r7, [r4, #44]	@ 0x2c
10003552:	6467      	str	r7, [r4, #68]	@ 0x44
10003554:	f000 ff74 	bl	10004440 <vListInitialiseItem>
10003558:	f1c7 0706 	rsb	r7, r7, #6
1000355c:	f104 0018 	add.w	r0, r4, #24
10003560:	f000 ff6e 	bl	10004440 <vListInitialiseItem>
10003564:	464b      	mov	r3, r9
10003566:	4642      	mov	r2, r8
10003568:	4628      	mov	r0, r5
1000356a:	6b21      	ldr	r1, [r4, #48]	@ 0x30
1000356c:	61a7      	str	r7, [r4, #24]
1000356e:	6124      	str	r4, [r4, #16]
10003570:	6264      	str	r4, [r4, #36]	@ 0x24
10003572:	f000 fe11 	bl	10004198 <pxPortInitialiseStack>
10003576:	9b09      	ldr	r3, [sp, #36]	@ 0x24
10003578:	6020      	str	r0, [r4, #0]
1000357a:	b103      	cbz	r3, 1000357e <xTaskCreate+0xea>
1000357c:	601c      	str	r4, [r3, #0]
1000357e:	4620      	mov	r0, r4
10003580:	f7ff fe20 	bl	100031c4 <prvAddNewTaskToReadyList>
10003584:	2001      	movs	r0, #1
10003586:	e8bd 83f8 	ldmia.w	sp!, {r3, r4, r5, r6, r7, r8, r9, pc}
1000358a:	4630      	mov	r0, r6
1000358c:	f000 fd86 	bl	1000409c <vPortFree>
10003590:	f04f 30ff 	mov.w	r0, #4294967295
10003594:	e8bd 83f8 	ldmia.w	sp!, {r3, r4, r5, r6, r7, r8, r9, pc}

10003598 <vTaskDelete>:
10003598:	b5f8      	push	{r3, r4, r5, r6, r7, lr}
1000359a:	4604      	mov	r4, r0
1000359c:	4e25      	ldr	r6, [pc, #148]	@ (10003634 <vTaskDelete+0x9c>)
1000359e:	f000 fdcb 	bl	10004138 <vPortEnterCritical>
100035a2:	2c00      	cmp	r4, #0
100035a4:	d03f      	beq.n	10003626 <vTaskDelete+0x8e>
100035a6:	1d27      	adds	r7, r4, #4
100035a8:	4638      	mov	r0, r7
100035aa:	f000 ff73 	bl	10004494 <uxListRemove>
100035ae:	6aa3      	ldr	r3, [r4, #40]	@ 0x28
100035b0:	b11b      	cbz	r3, 100035ba <vTaskDelete+0x22>
100035b2:	f104 0018 	add.w	r0, r4, #24
100035b6:	f000 ff6d 	bl	10004494 <uxListRemove>
100035ba:	4a1f      	ldr	r2, [pc, #124]	@ (10003638 <vTaskDelete+0xa0>)
100035bc:	4d1f      	ldr	r5, [pc, #124]	@ (1000363c <vTaskDelete+0xa4>)
100035be:	6813      	ldr	r3, [r2, #0]
100035c0:	3301      	adds	r3, #1
100035c2:	6013      	str	r3, [r2, #0]
100035c4:	6833      	ldr	r3, [r6, #0]
100035c6:	42a3      	cmp	r3, r4
100035c8:	682b      	ldr	r3, [r5, #0]
100035ca:	d01f      	beq.n	1000360c <vTaskDelete+0x74>
100035cc:	4a1c      	ldr	r2, [pc, #112]	@ (10003640 <vTaskDelete+0xa8>)
100035ce:	6813      	ldr	r3, [r2, #0]
100035d0:	3b01      	subs	r3, #1
100035d2:	6013      	str	r3, [r2, #0]
100035d4:	4b1b      	ldr	r3, [pc, #108]	@ (10003644 <vTaskDelete+0xac>)
100035d6:	681a      	ldr	r2, [r3, #0]
100035d8:	6812      	ldr	r2, [r2, #0]
100035da:	b192      	cbz	r2, 10003602 <vTaskDelete+0x6a>
100035dc:	681a      	ldr	r2, [r3, #0]
100035de:	4b1a      	ldr	r3, [pc, #104]	@ (10003648 <vTaskDelete+0xb0>)
100035e0:	68d2      	ldr	r2, [r2, #12]
100035e2:	6812      	ldr	r2, [r2, #0]
100035e4:	601a      	str	r2, [r3, #0]
100035e6:	f000 fdb5 	bl	10004154 <vPortExitCritical>
100035ea:	6b20      	ldr	r0, [r4, #48]	@ 0x30
100035ec:	f000 fd56 	bl	1000409c <vPortFree>
100035f0:	4620      	mov	r0, r4
100035f2:	f000 fd53 	bl	1000409c <vPortFree>
100035f6:	682b      	ldr	r3, [r5, #0]
100035f8:	b113      	cbz	r3, 10003600 <vTaskDelete+0x68>
100035fa:	6833      	ldr	r3, [r6, #0]
100035fc:	42a3      	cmp	r3, r4
100035fe:	d014      	beq.n	1000362a <vTaskDelete+0x92>
10003600:	bdf8      	pop	{r3, r4, r5, r6, r7, pc}
10003602:	f04f 32ff 	mov.w	r2, #4294967295
10003606:	4b10      	ldr	r3, [pc, #64]	@ (10003648 <vTaskDelete+0xb0>)
10003608:	601a      	str	r2, [r3, #0]
1000360a:	e7ec      	b.n	100035e6 <vTaskDelete+0x4e>
1000360c:	2b00      	cmp	r3, #0
1000360e:	d0dd      	beq.n	100035cc <vTaskDelete+0x34>
10003610:	4639      	mov	r1, r7
10003612:	480e      	ldr	r0, [pc, #56]	@ (1000364c <vTaskDelete+0xb4>)
10003614:	f000 ff18 	bl	10004448 <vListInsertEnd>
10003618:	4a0d      	ldr	r2, [pc, #52]	@ (10003650 <vTaskDelete+0xb8>)
1000361a:	6813      	ldr	r3, [r2, #0]
1000361c:	3301      	adds	r3, #1
1000361e:	6013      	str	r3, [r2, #0]
10003620:	f000 fd98 	bl	10004154 <vPortExitCritical>
10003624:	e7e7      	b.n	100035f6 <vTaskDelete+0x5e>
10003626:	6834      	ldr	r4, [r6, #0]
10003628:	e7bd      	b.n	100035a6 <vTaskDelete+0xe>
1000362a:	e8bd 40f8 	ldmia.w	sp!, {r3, r4, r5, r6, r7, lr}
1000362e:	f000 bd77 	b.w	10004120 <vPortYield>
10003632:	bf00      	nop
10003634:	200012a0 	.word	0x200012a0
10003638:	20001348 	.word	0x20001348
1000363c:	200013cc 	.word	0x200013cc
10003640:	2000133c 	.word	0x2000133c
10003644:	200012a8 	.word	0x200012a8
10003648:	200013ac 	.word	0x200013ac
1000364c:	200013e4 	.word	0x200013e4
10003650:	20001340 	.word	0x20001340

10003654 <vTaskStartScheduler>:
10003654:	e92d 43f8 	stmdb	sp!, {r3, r4, r5, r6, r7, r8, r9, lr}
10003658:	f44f 7000 	mov.w	r0, #512	@ 0x200
1000365c:	f000 fd12 	bl	10004084 <pvPortMalloc>
10003660:	b388      	cbz	r0, 100036c6 <vTaskStartScheduler+0x72>
10003662:	4606      	mov	r6, r0
10003664:	2070      	movs	r0, #112	@ 0x70
10003666:	f000 fd0d 	bl	10004084 <pvPortMalloc>
1000366a:	4604      	mov	r4, r0
1000366c:	b378      	cbz	r0, 100036ce <vTaskStartScheduler+0x7a>
1000366e:	2700      	movs	r7, #0
10003670:	f8df 9098 	ldr.w	r9, [pc, #152]	@ 1000370c <vTaskStartScheduler+0xb8>
10003674:	4639      	mov	r1, r7
10003676:	2270      	movs	r2, #112	@ 0x70
10003678:	f001 fe3e 	bl	100052f8 <memset>
1000367c:	f506 75fe 	add.w	r5, r6, #508	@ 0x1fc
10003680:	e9c4 690c 	strd	r6, r9, [r4, #48]	@ 0x30
10003684:	2606      	movs	r6, #6
10003686:	1d20      	adds	r0, r4, #4
10003688:	f000 feda 	bl	10004440 <vListInitialiseItem>
1000368c:	f025 0507 	bic.w	r5, r5, #7
10003690:	f104 0018 	add.w	r0, r4, #24
10003694:	f000 fed4 	bl	10004440 <vListInitialiseItem>
10003698:	463b      	mov	r3, r7
1000369a:	4a17      	ldr	r2, [pc, #92]	@ (100036f8 <vTaskStartScheduler+0xa4>)
1000369c:	6b21      	ldr	r1, [r4, #48]	@ 0x30
1000369e:	4628      	mov	r0, r5
100036a0:	6124      	str	r4, [r4, #16]
100036a2:	61a6      	str	r6, [r4, #24]
100036a4:	6264      	str	r4, [r4, #36]	@ 0x24
100036a6:	f000 fd77 	bl	10004198 <pxPortInitialiseStack>
100036aa:	4603      	mov	r3, r0
100036ac:	f8df 8060 	ldr.w	r8, [pc, #96]	@ 10003710 <vTaskStartScheduler+0xbc>
100036b0:	6023      	str	r3, [r4, #0]
100036b2:	4620      	mov	r0, r4
100036b4:	2701      	movs	r7, #1
100036b6:	f8c8 4000 	str.w	r4, [r8]
100036ba:	f7ff fd83 	bl	100031c4 <prvAddNewTaskToReadyList>
100036be:	f000 fc9f 	bl	10004000 <xTimerCreateTimerTask>
100036c2:	42b8      	cmp	r0, r7
100036c4:	d00a      	beq.n	100036dc <vTaskStartScheduler+0x88>
100036c6:	4b0d      	ldr	r3, [pc, #52]	@ (100036fc <vTaskStartScheduler+0xa8>)
100036c8:	681b      	ldr	r3, [r3, #0]
100036ca:	e8bd 83f8 	ldmia.w	sp!, {r3, r4, r5, r6, r7, r8, r9, pc}
100036ce:	4630      	mov	r0, r6
100036d0:	f000 fce4 	bl	1000409c <vPortFree>
100036d4:	4b09      	ldr	r3, [pc, #36]	@ (100036fc <vTaskStartScheduler+0xa8>)
100036d6:	681b      	ldr	r3, [r3, #0]
100036d8:	e8bd 83f8 	ldmia.w	sp!, {r3, r4, r5, r6, r7, r8, r9, pc}
100036dc:	f000 fe36 	bl	1000434c <ulSetInterruptMask>
100036e0:	f04f 34ff 	mov.w	r4, #4294967295
100036e4:	2200      	movs	r2, #0
100036e6:	4906      	ldr	r1, [pc, #24]	@ (10003700 <vTaskStartScheduler+0xac>)
100036e8:	4b06      	ldr	r3, [pc, #24]	@ (10003704 <vTaskStartScheduler+0xb0>)
100036ea:	4807      	ldr	r0, [pc, #28]	@ (10003708 <vTaskStartScheduler+0xb4>)
100036ec:	6004      	str	r4, [r0, #0]
100036ee:	600f      	str	r7, [r1, #0]
100036f0:	601a      	str	r2, [r3, #0]
100036f2:	f000 fd8d 	bl	10004210 <xPortStartScheduler>
100036f6:	e7e6      	b.n	100036c6 <vTaskStartScheduler+0x72>
100036f8:	100032dd 	.word	0x100032dd
100036fc:	10005a24 	.word	0x10005a24
10003700:	200013cc 	.word	0x200013cc
10003704:	200013f8 	.word	0x200013f8
10003708:	200013ac 	.word	0x200013ac
1000370c:	454c4449 	.word	0x454c4449
10003710:	200013a4 	.word	0x200013a4

10003714 <vTaskSuspendAll>:
10003714:	4a02      	ldr	r2, [pc, #8]	@ (10003720 <vTaskSuspendAll+0xc>)
10003716:	6813      	ldr	r3, [r2, #0]
10003718:	3301      	adds	r3, #1
1000371a:	6013      	str	r3, [r2, #0]
1000371c:	4770      	bx	lr
1000371e:	bf00      	nop
10003720:	20001344 	.word	0x20001344

10003724 <xTaskResumeAll>:
10003724:	e92d 4ff0 	stmdb	sp!, {r4, r5, r6, r7, r8, r9, sl, fp, lr}
10003728:	f8df 816c 	ldr.w	r8, [pc, #364]	@ 10003898 <xTaskResumeAll+0x174>
1000372c:	b083      	sub	sp, #12
1000372e:	f000 fd03 	bl	10004138 <vPortEnterCritical>
10003732:	f8d8 3000 	ldr.w	r3, [r8]
10003736:	3b01      	subs	r3, #1
10003738:	f8c8 3000 	str.w	r3, [r8]
1000373c:	f8d8 e000 	ldr.w	lr, [r8]
10003740:	f1be 0f00 	cmp.w	lr, #0
10003744:	f040 8081 	bne.w	1000384a <xTaskResumeAll+0x126>
10003748:	4b4c      	ldr	r3, [pc, #304]	@ (1000387c <xTaskResumeAll+0x158>)
1000374a:	681b      	ldr	r3, [r3, #0]
1000374c:	2b00      	cmp	r3, #0
1000374e:	d07c      	beq.n	1000384a <xTaskResumeAll+0x126>
10003750:	f8df c148 	ldr.w	ip, [pc, #328]	@ 1000389c <xTaskResumeAll+0x178>
10003754:	f8dc 3000 	ldr.w	r3, [ip]
10003758:	2b00      	cmp	r3, #0
1000375a:	f000 808b 	beq.w	10003874 <xTaskResumeAll+0x150>
1000375e:	4b48      	ldr	r3, [pc, #288]	@ (10003880 <xTaskResumeAll+0x15c>)
10003760:	f8df 913c 	ldr.w	r9, [pc, #316]	@ 100038a0 <xTaskResumeAll+0x17c>
10003764:	4e47      	ldr	r6, [pc, #284]	@ (10003884 <xTaskResumeAll+0x160>)
10003766:	9301      	str	r3, [sp, #4]
10003768:	f8dc 300c 	ldr.w	r3, [ip, #12]
1000376c:	68db      	ldr	r3, [r3, #12]
1000376e:	6a9a      	ldr	r2, [r3, #40]	@ 0x28
10003770:	e9d3 0107 	ldrd	r0, r1, [r3, #28]
10003774:	6854      	ldr	r4, [r2, #4]
10003776:	6081      	str	r1, [r0, #8]
10003778:	6048      	str	r0, [r1, #4]
1000377a:	f103 0018 	add.w	r0, r3, #24
1000377e:	4284      	cmp	r4, r0
10003780:	bf08      	it	eq
10003782:	6051      	streq	r1, [r2, #4]
10003784:	6811      	ldr	r1, [r2, #0]
10003786:	f8c3 e028 	str.w	lr, [r3, #40]	@ 0x28
1000378a:	3901      	subs	r1, #1
1000378c:	6011      	str	r1, [r2, #0]
1000378e:	695a      	ldr	r2, [r3, #20]
10003790:	e9d3 4102 	ldrd	r4, r1, [r3, #8]
10003794:	60a1      	str	r1, [r4, #8]
10003796:	604c      	str	r4, [r1, #4]
10003798:	6854      	ldr	r4, [r2, #4]
1000379a:	1d1d      	adds	r5, r3, #4
1000379c:	42ac      	cmp	r4, r5
1000379e:	bf08      	it	eq
100037a0:	6051      	streq	r1, [r2, #4]
100037a2:	6811      	ldr	r1, [r2, #0]
100037a4:	f8d9 0000 	ldr.w	r0, [r9]
100037a8:	3901      	subs	r1, #1
100037aa:	6011      	str	r1, [r2, #0]
100037ac:	6ada      	ldr	r2, [r3, #44]	@ 0x2c
100037ae:	4282      	cmp	r2, r0
100037b0:	4835      	ldr	r0, [pc, #212]	@ (10003888 <xTaskResumeAll+0x164>)
100037b2:	eb02 0182 	add.w	r1, r2, r2, lsl #2
100037b6:	bf88      	it	hi
100037b8:	f8c9 2000 	strhi.w	r2, [r9]
100037bc:	6800      	ldr	r0, [r0, #0]
100037be:	eb06 0781 	add.w	r7, r6, r1, lsl #2
100037c2:	687c      	ldr	r4, [r7, #4]
100037c4:	f8d0 a02c 	ldr.w	sl, [r0, #44]	@ 0x2c
100037c8:	f856 0021 	ldr.w	r0, [r6, r1, lsl #2]
100037cc:	f8d4 b008 	ldr.w	fp, [r4, #8]
100037d0:	3001      	adds	r0, #1
100037d2:	4552      	cmp	r2, sl
100037d4:	609c      	str	r4, [r3, #8]
100037d6:	f8c3 b00c 	str.w	fp, [r3, #12]
100037da:	f8cb 5004 	str.w	r5, [fp, #4]
100037de:	60a5      	str	r5, [r4, #8]
100037e0:	615f      	str	r7, [r3, #20]
100037e2:	f846 0021 	str.w	r0, [r6, r1, lsl #2]
100037e6:	d937      	bls.n	10003858 <xTaskResumeAll+0x134>
100037e8:	2201      	movs	r2, #1
100037ea:	9b01      	ldr	r3, [sp, #4]
100037ec:	601a      	str	r2, [r3, #0]
100037ee:	f8dc 3000 	ldr.w	r3, [ip]
100037f2:	2b00      	cmp	r3, #0
100037f4:	d1b8      	bne.n	10003768 <xTaskResumeAll+0x44>
100037f6:	4b25      	ldr	r3, [pc, #148]	@ (1000388c <xTaskResumeAll+0x168>)
100037f8:	681a      	ldr	r2, [r3, #0]
100037fa:	6812      	ldr	r2, [r2, #0]
100037fc:	2a00      	cmp	r2, #0
100037fe:	d034      	beq.n	1000386a <xTaskResumeAll+0x146>
10003800:	681a      	ldr	r2, [r3, #0]
10003802:	4b23      	ldr	r3, [pc, #140]	@ (10003890 <xTaskResumeAll+0x16c>)
10003804:	68d2      	ldr	r2, [r2, #12]
10003806:	6812      	ldr	r2, [r2, #0]
10003808:	601a      	str	r2, [r3, #0]
1000380a:	4d22      	ldr	r5, [pc, #136]	@ (10003894 <xTaskResumeAll+0x170>)
1000380c:	682c      	ldr	r4, [r5, #0]
1000380e:	b19c      	cbz	r4, 10003838 <xTaskResumeAll+0x114>
10003810:	2601      	movs	r6, #1
10003812:	9f01      	ldr	r7, [sp, #4]
10003814:	e005      	b.n	10003822 <xTaskResumeAll+0xfe>
10003816:	f7ff fd8f 	bl	10003338 <xTaskIncrementTick.part.0>
1000381a:	b100      	cbz	r0, 1000381e <xTaskResumeAll+0xfa>
1000381c:	603e      	str	r6, [r7, #0]
1000381e:	3c01      	subs	r4, #1
10003820:	d009      	beq.n	10003836 <xTaskResumeAll+0x112>
10003822:	f8d8 3000 	ldr.w	r3, [r8]
10003826:	2b00      	cmp	r3, #0
10003828:	d0f5      	beq.n	10003816 <xTaskResumeAll+0xf2>
1000382a:	682b      	ldr	r3, [r5, #0]
1000382c:	3c01      	subs	r4, #1
1000382e:	f103 0301 	add.w	r3, r3, #1
10003832:	602b      	str	r3, [r5, #0]
10003834:	d1f5      	bne.n	10003822 <xTaskResumeAll+0xfe>
10003836:	602c      	str	r4, [r5, #0]
10003838:	9b01      	ldr	r3, [sp, #4]
1000383a:	681b      	ldr	r3, [r3, #0]
1000383c:	b12b      	cbz	r3, 1000384a <xTaskResumeAll+0x126>
1000383e:	4b12      	ldr	r3, [pc, #72]	@ (10003888 <xTaskResumeAll+0x164>)
10003840:	2401      	movs	r4, #1
10003842:	681b      	ldr	r3, [r3, #0]
10003844:	f000 fc6c 	bl	10004120 <vPortYield>
10003848:	e000      	b.n	1000384c <xTaskResumeAll+0x128>
1000384a:	2400      	movs	r4, #0
1000384c:	f000 fc82 	bl	10004154 <vPortExitCritical>
10003850:	4620      	mov	r0, r4
10003852:	b003      	add	sp, #12
10003854:	e8bd 8ff0 	ldmia.w	sp!, {r4, r5, r6, r7, r8, r9, sl, fp, pc}
10003858:	f8dc 3000 	ldr.w	r3, [ip]
1000385c:	2b00      	cmp	r3, #0
1000385e:	d183      	bne.n	10003768 <xTaskResumeAll+0x44>
10003860:	4b0a      	ldr	r3, [pc, #40]	@ (1000388c <xTaskResumeAll+0x168>)
10003862:	681a      	ldr	r2, [r3, #0]
10003864:	6812      	ldr	r2, [r2, #0]
10003866:	2a00      	cmp	r2, #0
10003868:	d1ca      	bne.n	10003800 <xTaskResumeAll+0xdc>
1000386a:	f04f 32ff 	mov.w	r2, #4294967295
1000386e:	4b08      	ldr	r3, [pc, #32]	@ (10003890 <xTaskResumeAll+0x16c>)
10003870:	601a      	str	r2, [r3, #0]
10003872:	e7ca      	b.n	1000380a <xTaskResumeAll+0xe6>
10003874:	4b02      	ldr	r3, [pc, #8]	@ (10003880 <xTaskResumeAll+0x15c>)
10003876:	9301      	str	r3, [sp, #4]
10003878:	e7c7      	b.n	1000380a <xTaskResumeAll+0xe6>
1000387a:	bf00      	nop
1000387c:	2000133c 	.word	0x2000133c
10003880:	20001404 	.word	0x20001404
10003884:	200012b4 	.word	0x200012b4
10003888:	200012a0 	.word	0x200012a0
1000388c:	200012a8 	.word	0x200012a8
10003890:	200013ac 	.word	0x200013ac
10003894:	200013b4 	.word	0x200013b4
10003898:	20001344 	.word	0x20001344
1000389c:	200013b8 	.word	0x200013b8
100038a0:	2000134c 	.word	0x2000134c

100038a4 <vTaskDelay>:
100038a4:	b908      	cbnz	r0, 100038aa <vTaskDelay+0x6>
100038a6:	f000 bc3b 	b.w	10004120 <vPortYield>
100038aa:	4a19      	ldr	r2, [pc, #100]	@ (10003910 <vTaskDelay+0x6c>)
100038ac:	e92d 41f0 	stmdb	sp!, {r4, r5, r6, r7, r8, lr}
100038b0:	6813      	ldr	r3, [r2, #0]
100038b2:	4604      	mov	r4, r0
100038b4:	3301      	adds	r3, #1
100038b6:	6013      	str	r3, [r2, #0]
100038b8:	4916      	ldr	r1, [pc, #88]	@ (10003914 <vTaskDelay+0x70>)
100038ba:	4b17      	ldr	r3, [pc, #92]	@ (10003918 <vTaskDelay+0x74>)
100038bc:	4d17      	ldr	r5, [pc, #92]	@ (1000391c <vTaskDelay+0x78>)
100038be:	4a18      	ldr	r2, [pc, #96]	@ (10003920 <vTaskDelay+0x7c>)
100038c0:	680e      	ldr	r6, [r1, #0]
100038c2:	6817      	ldr	r7, [r2, #0]
100038c4:	f8d3 8000 	ldr.w	r8, [r3]
100038c8:	6828      	ldr	r0, [r5, #0]
100038ca:	3004      	adds	r0, #4
100038cc:	f000 fde2 	bl	10004494 <uxListRemove>
100038d0:	682b      	ldr	r3, [r5, #0]
100038d2:	19a4      	adds	r4, r4, r6
100038d4:	6829      	ldr	r1, [r5, #0]
100038d6:	605c      	str	r4, [r3, #4]
100038d8:	d20d      	bcs.n	100038f6 <vTaskDelay+0x52>
100038da:	4638      	mov	r0, r7
100038dc:	3104      	adds	r1, #4
100038de:	f000 fdc1 	bl	10004464 <vListInsert>
100038e2:	4b10      	ldr	r3, [pc, #64]	@ (10003924 <vTaskDelay+0x80>)
100038e4:	681a      	ldr	r2, [r3, #0]
100038e6:	4294      	cmp	r4, r2
100038e8:	bf38      	it	cc
100038ea:	601c      	strcc	r4, [r3, #0]
100038ec:	f7ff ff1a 	bl	10003724 <xTaskResumeAll>
100038f0:	b148      	cbz	r0, 10003906 <vTaskDelay+0x62>
100038f2:	e8bd 81f0 	ldmia.w	sp!, {r4, r5, r6, r7, r8, pc}
100038f6:	4640      	mov	r0, r8
100038f8:	3104      	adds	r1, #4
100038fa:	f000 fdb3 	bl	10004464 <vListInsert>
100038fe:	f7ff ff11 	bl	10003724 <xTaskResumeAll>
10003902:	2800      	cmp	r0, #0
10003904:	d1f5      	bne.n	100038f2 <vTaskDelay+0x4e>
10003906:	e8bd 41f0 	ldmia.w	sp!, {r4, r5, r6, r7, r8, lr}
1000390a:	f000 bc09 	b.w	10004120 <vPortYield>
1000390e:	bf00      	nop
10003910:	20001344 	.word	0x20001344
10003914:	200013f8 	.word	0x200013f8
10003918:	200012ac 	.word	0x200012ac
1000391c:	200012a0 	.word	0x200012a0
10003920:	200012a8 	.word	0x200012a8
10003924:	200013ac 	.word	0x200013ac

10003928 <xTaskGetTickCount>:
10003928:	4b01      	ldr	r3, [pc, #4]	@ (10003930 <xTaskGetTickCount+0x8>)
1000392a:	6818      	ldr	r0, [r3, #0]
1000392c:	4770      	bx	lr
1000392e:	bf00      	nop
10003930:	200013f8 	.word	0x200013f8

10003934 <xTaskIncrementTick>:
10003934:	4b05      	ldr	r3, [pc, #20]	@ (1000394c <xTaskIncrementTick+0x18>)
10003936:	681b      	ldr	r3, [r3, #0]
10003938:	b90b      	cbnz	r3, 1000393e <xTaskIncrementTick+0xa>
1000393a:	f7ff bcfd 	b.w	10003338 <xTaskIncrementTick.part.0>
1000393e:	4a04      	ldr	r2, [pc, #16]	@ (10003950 <xTaskIncrementTick+0x1c>)
10003940:	2000      	movs	r0, #0
10003942:	6813      	ldr	r3, [r2, #0]
10003944:	3301      	adds	r3, #1
10003946:	6013      	str	r3, [r2, #0]
10003948:	4770      	bx	lr
1000394a:	bf00      	nop
1000394c:	20001344 	.word	0x20001344
10003950:	200013b4 	.word	0x200013b4

10003954 <vTaskSwitchContext>:
10003954:	4b23      	ldr	r3, [pc, #140]	@ (100039e4 <vTaskSwitchContext+0x90>)
10003956:	681b      	ldr	r3, [r3, #0]
10003958:	b11b      	cbz	r3, 10003962 <vTaskSwitchContext+0xe>
1000395a:	2201      	movs	r2, #1
1000395c:	4b22      	ldr	r3, [pc, #136]	@ (100039e8 <vTaskSwitchContext+0x94>)
1000395e:	601a      	str	r2, [r3, #0]
10003960:	4770      	bx	lr
10003962:	4a21      	ldr	r2, [pc, #132]	@ (100039e8 <vTaskSwitchContext+0x94>)
10003964:	b430      	push	{r4, r5}
10003966:	4c21      	ldr	r4, [pc, #132]	@ (100039ec <vTaskSwitchContext+0x98>)
10003968:	6013      	str	r3, [r2, #0]
1000396a:	6820      	ldr	r0, [r4, #0]
1000396c:	4a20      	ldr	r2, [pc, #128]	@ (100039f0 <vTaskSwitchContext+0x9c>)
1000396e:	eb00 0380 	add.w	r3, r0, r0, lsl #2
10003972:	f852 3023 	ldr.w	r3, [r2, r3, lsl #2]
10003976:	0081      	lsls	r1, r0, #2
10003978:	bb8b      	cbnz	r3, 100039de <vTaskSwitchContext+0x8a>
1000397a:	1e43      	subs	r3, r0, #1
1000397c:	eb03 0583 	add.w	r5, r3, r3, lsl #2
10003980:	f852 5025 	ldr.w	r5, [r2, r5, lsl #2]
10003984:	0099      	lsls	r1, r3, #2
10003986:	b9b5      	cbnz	r5, 100039b6 <vTaskSwitchContext+0x62>
10003988:	1e83      	subs	r3, r0, #2
1000398a:	eb03 0583 	add.w	r5, r3, r3, lsl #2
1000398e:	f852 5025 	ldr.w	r5, [r2, r5, lsl #2]
10003992:	0099      	lsls	r1, r3, #2
10003994:	b97d      	cbnz	r5, 100039b6 <vTaskSwitchContext+0x62>
10003996:	1ec3      	subs	r3, r0, #3
10003998:	eb03 0583 	add.w	r5, r3, r3, lsl #2
1000399c:	f852 5025 	ldr.w	r5, [r2, r5, lsl #2]
100039a0:	0099      	lsls	r1, r3, #2
100039a2:	b945      	cbnz	r5, 100039b6 <vTaskSwitchContext+0x62>
100039a4:	1f03      	subs	r3, r0, #4
100039a6:	eb03 0583 	add.w	r5, r3, r3, lsl #2
100039aa:	f852 5025 	ldr.w	r5, [r2, r5, lsl #2]
100039ae:	0099      	lsls	r1, r3, #2
100039b0:	b90d      	cbnz	r5, 100039b6 <vTaskSwitchContext+0x62>
100039b2:	1f43      	subs	r3, r0, #5
100039b4:	0099      	lsls	r1, r3, #2
100039b6:	4419      	add	r1, r3
100039b8:	eb02 0081 	add.w	r0, r2, r1, lsl #2
100039bc:	4602      	mov	r2, r0
100039be:	6841      	ldr	r1, [r0, #4]
100039c0:	3208      	adds	r2, #8
100039c2:	6849      	ldr	r1, [r1, #4]
100039c4:	4291      	cmp	r1, r2
100039c6:	6041      	str	r1, [r0, #4]
100039c8:	bf08      	it	eq
100039ca:	68c1      	ldreq	r1, [r0, #12]
100039cc:	4a09      	ldr	r2, [pc, #36]	@ (100039f4 <vTaskSwitchContext+0xa0>)
100039ce:	bf08      	it	eq
100039d0:	6041      	streq	r1, [r0, #4]
100039d2:	68c9      	ldr	r1, [r1, #12]
100039d4:	6011      	str	r1, [r2, #0]
100039d6:	6023      	str	r3, [r4, #0]
100039d8:	6813      	ldr	r3, [r2, #0]
100039da:	bc30      	pop	{r4, r5}
100039dc:	4770      	bx	lr
100039de:	4603      	mov	r3, r0
100039e0:	e7e9      	b.n	100039b6 <vTaskSwitchContext+0x62>
100039e2:	bf00      	nop
100039e4:	20001344 	.word	0x20001344
100039e8:	20001404 	.word	0x20001404
100039ec:	2000134c 	.word	0x2000134c
100039f0:	200012b4 	.word	0x200012b4
100039f4:	200012a0 	.word	0x200012a0

100039f8 <vTaskPlaceOnEventList>:
100039f8:	e92d 41f0 	stmdb	sp!, {r4, r5, r6, r7, r8, lr}
100039fc:	460c      	mov	r4, r1
100039fe:	4d1e      	ldr	r5, [pc, #120]	@ (10003a78 <vTaskPlaceOnEventList+0x80>)
10003a00:	6829      	ldr	r1, [r5, #0]
10003a02:	3118      	adds	r1, #24
10003a04:	f000 fd2e 	bl	10004464 <vListInsert>
10003a08:	4b1c      	ldr	r3, [pc, #112]	@ (10003a7c <vTaskPlaceOnEventList+0x84>)
10003a0a:	491d      	ldr	r1, [pc, #116]	@ (10003a80 <vTaskPlaceOnEventList+0x88>)
10003a0c:	4a1d      	ldr	r2, [pc, #116]	@ (10003a84 <vTaskPlaceOnEventList+0x8c>)
10003a0e:	680e      	ldr	r6, [r1, #0]
10003a10:	6817      	ldr	r7, [r2, #0]
10003a12:	f8d3 8000 	ldr.w	r8, [r3]
10003a16:	6828      	ldr	r0, [r5, #0]
10003a18:	3004      	adds	r0, #4
10003a1a:	f000 fd3b 	bl	10004494 <uxListRemove>
10003a1e:	1c63      	adds	r3, r4, #1
10003a20:	d015      	beq.n	10003a4e <vTaskPlaceOnEventList+0x56>
10003a22:	682b      	ldr	r3, [r5, #0]
10003a24:	19a4      	adds	r4, r4, r6
10003a26:	6829      	ldr	r1, [r5, #0]
10003a28:	605c      	str	r4, [r3, #4]
10003a2a:	d20a      	bcs.n	10003a42 <vTaskPlaceOnEventList+0x4a>
10003a2c:	4638      	mov	r0, r7
10003a2e:	3104      	adds	r1, #4
10003a30:	f000 fd18 	bl	10004464 <vListInsert>
10003a34:	4b14      	ldr	r3, [pc, #80]	@ (10003a88 <vTaskPlaceOnEventList+0x90>)
10003a36:	681a      	ldr	r2, [r3, #0]
10003a38:	4294      	cmp	r4, r2
10003a3a:	bf38      	it	cc
10003a3c:	601c      	strcc	r4, [r3, #0]
10003a3e:	e8bd 81f0 	ldmia.w	sp!, {r4, r5, r6, r7, r8, pc}
10003a42:	4640      	mov	r0, r8
10003a44:	e8bd 41f0 	ldmia.w	sp!, {r4, r5, r6, r7, r8, lr}
10003a48:	3104      	adds	r1, #4
10003a4a:	f000 bd0b 	b.w	10004464 <vListInsert>
10003a4e:	4b0f      	ldr	r3, [pc, #60]	@ (10003a8c <vTaskPlaceOnEventList+0x94>)
10003a50:	6829      	ldr	r1, [r5, #0]
10003a52:	685a      	ldr	r2, [r3, #4]
10003a54:	681c      	ldr	r4, [r3, #0]
10003a56:	608a      	str	r2, [r1, #8]
10003a58:	682e      	ldr	r6, [r5, #0]
10003a5a:	3401      	adds	r4, #1
10003a5c:	6828      	ldr	r0, [r5, #0]
10003a5e:	6829      	ldr	r1, [r5, #0]
10003a60:	601c      	str	r4, [r3, #0]
10003a62:	682d      	ldr	r5, [r5, #0]
10003a64:	6894      	ldr	r4, [r2, #8]
10003a66:	3004      	adds	r0, #4
10003a68:	3104      	adds	r1, #4
10003a6a:	60f4      	str	r4, [r6, #12]
10003a6c:	6060      	str	r0, [r4, #4]
10003a6e:	6091      	str	r1, [r2, #8]
10003a70:	616b      	str	r3, [r5, #20]
10003a72:	e8bd 81f0 	ldmia.w	sp!, {r4, r5, r6, r7, r8, pc}
10003a76:	bf00      	nop
10003a78:	200012a0 	.word	0x200012a0
10003a7c:	200012ac 	.word	0x200012ac
10003a80:	200013f8 	.word	0x200013f8
10003a84:	200012a8 	.word	0x200012a8
10003a88:	200013ac 	.word	0x200013ac
10003a8c:	200013d0 	.word	0x200013d0

10003a90 <vTaskPlaceOnEventListRestricted>:
10003a90:	4694      	mov	ip, r2
10003a92:	e92d 41f0 	stmdb	sp!, {r4, r5, r6, r7, r8, lr}
10003a96:	4c2b      	ldr	r4, [pc, #172]	@ (10003b44 <vTaskPlaceOnEventListRestricted+0xb4>)
10003a98:	460d      	mov	r5, r1
10003a9a:	6823      	ldr	r3, [r4, #0]
10003a9c:	6841      	ldr	r1, [r0, #4]
10003a9e:	f8d4 8000 	ldr.w	r8, [r4]
10003aa2:	61d9      	str	r1, [r3, #28]
10003aa4:	6827      	ldr	r7, [r4, #0]
10003aa6:	6803      	ldr	r3, [r0, #0]
10003aa8:	6826      	ldr	r6, [r4, #0]
10003aaa:	688a      	ldr	r2, [r1, #8]
10003aac:	f8d4 e000 	ldr.w	lr, [r4]
10003ab0:	3301      	adds	r3, #1
10003ab2:	3718      	adds	r7, #24
10003ab4:	3618      	adds	r6, #24
10003ab6:	f8c8 2020 	str.w	r2, [r8, #32]
10003aba:	6057      	str	r7, [r2, #4]
10003abc:	608e      	str	r6, [r1, #8]
10003abe:	4a22      	ldr	r2, [pc, #136]	@ (10003b48 <vTaskPlaceOnEventListRestricted+0xb8>)
10003ac0:	f8ce 0028 	str.w	r0, [lr, #40]	@ 0x28
10003ac4:	4921      	ldr	r1, [pc, #132]	@ (10003b4c <vTaskPlaceOnEventListRestricted+0xbc>)
10003ac6:	6003      	str	r3, [r0, #0]
10003ac8:	4b21      	ldr	r3, [pc, #132]	@ (10003b50 <vTaskPlaceOnEventListRestricted+0xc0>)
10003aca:	f1bc 0f00 	cmp.w	ip, #0
10003ace:	d01a      	beq.n	10003b06 <vTaskPlaceOnEventListRestricted+0x76>
10003ad0:	6809      	ldr	r1, [r1, #0]
10003ad2:	6812      	ldr	r2, [r2, #0]
10003ad4:	681b      	ldr	r3, [r3, #0]
10003ad6:	6820      	ldr	r0, [r4, #0]
10003ad8:	3004      	adds	r0, #4
10003ada:	f000 fcdb 	bl	10004494 <uxListRemove>
10003ade:	4b1d      	ldr	r3, [pc, #116]	@ (10003b54 <vTaskPlaceOnEventListRestricted+0xc4>)
10003ae0:	6819      	ldr	r1, [r3, #0]
10003ae2:	685a      	ldr	r2, [r3, #4]
10003ae4:	3101      	adds	r1, #1
10003ae6:	6019      	str	r1, [r3, #0]
10003ae8:	6821      	ldr	r1, [r4, #0]
10003aea:	6890      	ldr	r0, [r2, #8]
10003aec:	608a      	str	r2, [r1, #8]
10003aee:	6821      	ldr	r1, [r4, #0]
10003af0:	60c8      	str	r0, [r1, #12]
10003af2:	6821      	ldr	r1, [r4, #0]
10003af4:	3104      	adds	r1, #4
10003af6:	6041      	str	r1, [r0, #4]
10003af8:	6821      	ldr	r1, [r4, #0]
10003afa:	6820      	ldr	r0, [r4, #0]
10003afc:	3104      	adds	r1, #4
10003afe:	6091      	str	r1, [r2, #8]
10003b00:	6143      	str	r3, [r0, #20]
10003b02:	e8bd 81f0 	ldmia.w	sp!, {r4, r5, r6, r7, r8, pc}
10003b06:	680e      	ldr	r6, [r1, #0]
10003b08:	6817      	ldr	r7, [r2, #0]
10003b0a:	f8d3 8000 	ldr.w	r8, [r3]
10003b0e:	6820      	ldr	r0, [r4, #0]
10003b10:	3004      	adds	r0, #4
10003b12:	f000 fcbf 	bl	10004494 <uxListRemove>
10003b16:	6823      	ldr	r3, [r4, #0]
10003b18:	19ad      	adds	r5, r5, r6
10003b1a:	6821      	ldr	r1, [r4, #0]
10003b1c:	605d      	str	r5, [r3, #4]
10003b1e:	d305      	bcc.n	10003b2c <vTaskPlaceOnEventListRestricted+0x9c>
10003b20:	4640      	mov	r0, r8
10003b22:	e8bd 41f0 	ldmia.w	sp!, {r4, r5, r6, r7, r8, lr}
10003b26:	3104      	adds	r1, #4
10003b28:	f000 bc9c 	b.w	10004464 <vListInsert>
10003b2c:	4638      	mov	r0, r7
10003b2e:	3104      	adds	r1, #4
10003b30:	f000 fc98 	bl	10004464 <vListInsert>
10003b34:	4b08      	ldr	r3, [pc, #32]	@ (10003b58 <vTaskPlaceOnEventListRestricted+0xc8>)
10003b36:	681a      	ldr	r2, [r3, #0]
10003b38:	4295      	cmp	r5, r2
10003b3a:	bf38      	it	cc
10003b3c:	601d      	strcc	r5, [r3, #0]
10003b3e:	e8bd 81f0 	ldmia.w	sp!, {r4, r5, r6, r7, r8, pc}
10003b42:	bf00      	nop
10003b44:	200012a0 	.word	0x200012a0
10003b48:	200012a8 	.word	0x200012a8
10003b4c:	200013f8 	.word	0x200013f8
10003b50:	200012ac 	.word	0x200012ac
10003b54:	200013d0 	.word	0x200013d0
10003b58:	200013ac 	.word	0x200013ac

10003b5c <xTaskRemoveFromEventList>:
10003b5c:	b4f0      	push	{r4, r5, r6, r7}
10003b5e:	2600      	movs	r6, #0
10003b60:	68c3      	ldr	r3, [r0, #12]
10003b62:	68db      	ldr	r3, [r3, #12]
10003b64:	6a9a      	ldr	r2, [r3, #40]	@ 0x28
10003b66:	e9d3 0107 	ldrd	r0, r1, [r3, #28]
10003b6a:	6081      	str	r1, [r0, #8]
10003b6c:	6048      	str	r0, [r1, #4]
10003b6e:	6850      	ldr	r0, [r2, #4]
10003b70:	f103 0418 	add.w	r4, r3, #24
10003b74:	42a0      	cmp	r0, r4
10003b76:	4827      	ldr	r0, [pc, #156]	@ (10003c14 <xTaskRemoveFromEventList+0xb8>)
10003b78:	bf08      	it	eq
10003b7a:	6051      	streq	r1, [r2, #4]
10003b7c:	6811      	ldr	r1, [r2, #0]
10003b7e:	6805      	ldr	r5, [r0, #0]
10003b80:	3901      	subs	r1, #1
10003b82:	6ad8      	ldr	r0, [r3, #44]	@ 0x2c
10003b84:	629e      	str	r6, [r3, #40]	@ 0x28
10003b86:	6011      	str	r1, [r2, #0]
10003b88:	2d00      	cmp	r5, #0
10003b8a:	d12f      	bne.n	10003bec <xTaskRemoveFromEventList+0x90>
10003b8c:	e9d3 4102 	ldrd	r4, r1, [r3, #8]
10003b90:	695a      	ldr	r2, [r3, #20]
10003b92:	60a1      	str	r1, [r4, #8]
10003b94:	604c      	str	r4, [r1, #4]
10003b96:	6854      	ldr	r4, [r2, #4]
10003b98:	1d1e      	adds	r6, r3, #4
10003b9a:	42b4      	cmp	r4, r6
10003b9c:	bf08      	it	eq
10003b9e:	6051      	streq	r1, [r2, #4]
10003ba0:	6811      	ldr	r1, [r2, #0]
10003ba2:	3901      	subs	r1, #1
10003ba4:	6011      	str	r1, [r2, #0]
10003ba6:	4a1c      	ldr	r2, [pc, #112]	@ (10003c18 <xTaskRemoveFromEventList+0xbc>)
10003ba8:	6811      	ldr	r1, [r2, #0]
10003baa:	4281      	cmp	r1, r0
10003bac:	491b      	ldr	r1, [pc, #108]	@ (10003c1c <xTaskRemoveFromEventList+0xc0>)
10003bae:	bf38      	it	cc
10003bb0:	6010      	strcc	r0, [r2, #0]
10003bb2:	eb00 0280 	add.w	r2, r0, r0, lsl #2
10003bb6:	eb01 0782 	add.w	r7, r1, r2, lsl #2
10003bba:	687d      	ldr	r5, [r7, #4]
10003bbc:	0092      	lsls	r2, r2, #2
10003bbe:	f8d5 c008 	ldr.w	ip, [r5, #8]
10003bc2:	588c      	ldr	r4, [r1, r2]
10003bc4:	609d      	str	r5, [r3, #8]
10003bc6:	f8c3 c00c 	str.w	ip, [r3, #12]
10003bca:	f8cc 6004 	str.w	r6, [ip, #4]
10003bce:	60ae      	str	r6, [r5, #8]
10003bd0:	615f      	str	r7, [r3, #20]
10003bd2:	4b13      	ldr	r3, [pc, #76]	@ (10003c20 <xTaskRemoveFromEventList+0xc4>)
10003bd4:	3401      	adds	r4, #1
10003bd6:	681b      	ldr	r3, [r3, #0]
10003bd8:	508c      	str	r4, [r1, r2]
10003bda:	6adb      	ldr	r3, [r3, #44]	@ 0x2c
10003bdc:	4283      	cmp	r3, r0
10003bde:	d215      	bcs.n	10003c0c <xTaskRemoveFromEventList+0xb0>
10003be0:	bcf0      	pop	{r4, r5, r6, r7}
10003be2:	2301      	movs	r3, #1
10003be4:	4a0f      	ldr	r2, [pc, #60]	@ (10003c24 <xTaskRemoveFromEventList+0xc8>)
10003be6:	4618      	mov	r0, r3
10003be8:	6013      	str	r3, [r2, #0]
10003bea:	4770      	bx	lr
10003bec:	4a0e      	ldr	r2, [pc, #56]	@ (10003c28 <xTaskRemoveFromEventList+0xcc>)
10003bee:	6815      	ldr	r5, [r2, #0]
10003bf0:	6851      	ldr	r1, [r2, #4]
10003bf2:	3501      	adds	r5, #1
10003bf4:	6015      	str	r5, [r2, #0]
10003bf6:	688d      	ldr	r5, [r1, #8]
10003bf8:	61d9      	str	r1, [r3, #28]
10003bfa:	621d      	str	r5, [r3, #32]
10003bfc:	606c      	str	r4, [r5, #4]
10003bfe:	608c      	str	r4, [r1, #8]
10003c00:	629a      	str	r2, [r3, #40]	@ 0x28
10003c02:	4b07      	ldr	r3, [pc, #28]	@ (10003c20 <xTaskRemoveFromEventList+0xc4>)
10003c04:	681b      	ldr	r3, [r3, #0]
10003c06:	6adb      	ldr	r3, [r3, #44]	@ 0x2c
10003c08:	4283      	cmp	r3, r0
10003c0a:	d3e9      	bcc.n	10003be0 <xTaskRemoveFromEventList+0x84>
10003c0c:	bcf0      	pop	{r4, r5, r6, r7}
10003c0e:	2000      	movs	r0, #0
10003c10:	4770      	bx	lr
10003c12:	bf00      	nop
10003c14:	20001344 	.word	0x20001344
10003c18:	2000134c 	.word	0x2000134c
10003c1c:	200012b4 	.word	0x200012b4
10003c20:	200012a0 	.word	0x200012a0
10003c24:	20001404 	.word	0x20001404
10003c28:	200013b8 	.word	0x200013b8

10003c2c <vTaskInternalSetTimeOutState>:
10003c2c:	4a03      	ldr	r2, [pc, #12]	@ (10003c3c <vTaskInternalSetTimeOutState+0x10>)
10003c2e:	4b04      	ldr	r3, [pc, #16]	@ (10003c40 <vTaskInternalSetTimeOutState+0x14>)
10003c30:	6812      	ldr	r2, [r2, #0]
10003c32:	681b      	ldr	r3, [r3, #0]
10003c34:	e9c0 2300 	strd	r2, r3, [r0]
10003c38:	4770      	bx	lr
10003c3a:	bf00      	nop
10003c3c:	200013b0 	.word	0x200013b0
10003c40:	200013f8 	.word	0x200013f8

10003c44 <xTaskCheckForTimeOut>:
10003c44:	b5f8      	push	{r3, r4, r5, r6, r7, lr}
10003c46:	460d      	mov	r5, r1
10003c48:	4604      	mov	r4, r0
10003c4a:	f000 fa75 	bl	10004138 <vPortEnterCritical>
10003c4e:	682b      	ldr	r3, [r5, #0]
10003c50:	4a12      	ldr	r2, [pc, #72]	@ (10003c9c <xTaskCheckForTimeOut+0x58>)
10003c52:	1c58      	adds	r0, r3, #1
10003c54:	6811      	ldr	r1, [r2, #0]
10003c56:	d01b      	beq.n	10003c90 <xTaskCheckForTimeOut+0x4c>
10003c58:	e9d4 6000 	ldrd	r6, r0, [r4]
10003c5c:	f8df c040 	ldr.w	ip, [pc, #64]	@ 10003ca0 <xTaskCheckForTimeOut+0x5c>
10003c60:	f8dc 7000 	ldr.w	r7, [ip]
10003c64:	42be      	cmp	r6, r7
10003c66:	d008      	beq.n	10003c7a <xTaskCheckForTimeOut+0x36>
10003c68:	4288      	cmp	r0, r1
10003c6a:	d806      	bhi.n	10003c7a <xTaskCheckForTimeOut+0x36>
10003c6c:	2300      	movs	r3, #0
10003c6e:	2401      	movs	r4, #1
10003c70:	602b      	str	r3, [r5, #0]
10003c72:	f000 fa6f 	bl	10004154 <vPortExitCritical>
10003c76:	4620      	mov	r0, r4
10003c78:	bdf8      	pop	{r3, r4, r5, r6, r7, pc}
10003c7a:	1a0f      	subs	r7, r1, r0
10003c7c:	42bb      	cmp	r3, r7
10003c7e:	d9f5      	bls.n	10003c6c <xTaskCheckForTimeOut+0x28>
10003c80:	1a5b      	subs	r3, r3, r1
10003c82:	f8dc 1000 	ldr.w	r1, [ip]
10003c86:	6812      	ldr	r2, [r2, #0]
10003c88:	4403      	add	r3, r0
10003c8a:	602b      	str	r3, [r5, #0]
10003c8c:	e9c4 1200 	strd	r1, r2, [r4]
10003c90:	2400      	movs	r4, #0
10003c92:	f000 fa5f 	bl	10004154 <vPortExitCritical>
10003c96:	4620      	mov	r0, r4
10003c98:	bdf8      	pop	{r3, r4, r5, r6, r7, pc}
10003c9a:	bf00      	nop
10003c9c:	200013f8 	.word	0x200013f8
10003ca0:	200013b0 	.word	0x200013b0

10003ca4 <vTaskMissedYield>:
10003ca4:	2201      	movs	r2, #1
10003ca6:	4b01      	ldr	r3, [pc, #4]	@ (10003cac <vTaskMissedYield+0x8>)
10003ca8:	601a      	str	r2, [r3, #0]
10003caa:	4770      	bx	lr
10003cac:	20001404 	.word	0x20001404

10003cb0 <prvTimerTask>:
10003cb0:	e92d 4ff0 	stmdb	sp!, {r4, r5, r6, r7, r8, r9, sl, fp, lr}
10003cb4:	4fb7      	ldr	r7, [pc, #732]	@ (10003f94 <prvTimerTask+0x2e4>)
10003cb6:	f8df b2e4 	ldr.w	fp, [pc, #740]	@ 10003f9c <prvTimerTask+0x2ec>
10003cba:	f8df 82e4 	ldr.w	r8, [pc, #740]	@ 10003fa0 <prvTimerTask+0x2f0>
10003cbe:	4db6      	ldr	r5, [pc, #728]	@ (10003f98 <prvTimerTask+0x2e8>)
10003cc0:	b087      	sub	sp, #28
10003cc2:	683b      	ldr	r3, [r7, #0]
10003cc4:	681c      	ldr	r4, [r3, #0]
10003cc6:	2c00      	cmp	r4, #0
10003cc8:	f040 811d 	bne.w	10003f06 <prvTimerTask+0x256>
10003ccc:	f7ff fd22 	bl	10003714 <vTaskSuspendAll>
10003cd0:	f7ff fe2a 	bl	10003928 <xTaskGetTickCount>
10003cd4:	f8db 3000 	ldr.w	r3, [fp]
10003cd8:	4681      	mov	r9, r0
10003cda:	4283      	cmp	r3, r0
10003cdc:	d848      	bhi.n	10003d70 <prvTimerTask+0xc0>
10003cde:	f8d8 3000 	ldr.w	r3, [r8]
10003ce2:	f8cb 0000 	str.w	r0, [fp]
10003ce6:	681a      	ldr	r2, [r3, #0]
10003ce8:	fab2 f282 	clz	r2, r2
10003cec:	0952      	lsrs	r2, r2, #5
10003cee:	6828      	ldr	r0, [r5, #0]
10003cf0:	eba4 0109 	sub.w	r1, r4, r9
10003cf4:	f000 fe22 	bl	1000493c <vQueueWaitForMessageRestricted>
10003cf8:	f7ff fd14 	bl	10003724 <xTaskResumeAll>
10003cfc:	2800      	cmp	r0, #0
10003cfe:	f000 8124 	beq.w	10003f4a <prvTimerTask+0x29a>
10003d02:	2300      	movs	r3, #0
10003d04:	e9cd 3302 	strd	r3, r3, [sp, #8]
10003d08:	e9cd 3304 	strd	r3, r3, [sp, #16]
10003d0c:	2200      	movs	r2, #0
10003d0e:	6828      	ldr	r0, [r5, #0]
10003d10:	a902      	add	r1, sp, #8
10003d12:	f000 fc0f 	bl	10004534 <xQueueReceive>
10003d16:	2800      	cmp	r0, #0
10003d18:	d0d3      	beq.n	10003cc2 <prvTimerTask+0x12>
10003d1a:	9b02      	ldr	r3, [sp, #8]
10003d1c:	9804      	ldr	r0, [sp, #16]
10003d1e:	2b00      	cmp	r3, #0
10003d20:	f2c0 80e9 	blt.w	10003ef6 <prvTimerTask+0x246>
10003d24:	f8dd a010 	ldr.w	sl, [sp, #16]
10003d28:	f8da 3014 	ldr.w	r3, [sl, #20]
10003d2c:	b11b      	cbz	r3, 10003d36 <prvTimerTask+0x86>
10003d2e:	f10a 0004 	add.w	r0, sl, #4
10003d32:	f000 fbaf 	bl	10004494 <uxListRemove>
10003d36:	f7ff fdf7 	bl	10003928 <xTaskGetTickCount>
10003d3a:	f8db 3000 	ldr.w	r3, [fp]
10003d3e:	9001      	str	r0, [sp, #4]
10003d40:	4298      	cmp	r0, r3
10003d42:	d343      	bcc.n	10003dcc <prvTimerTask+0x11c>
10003d44:	e9dd 2301 	ldrd	r2, r3, [sp, #4]
10003d48:	3b01      	subs	r3, #1
10003d4a:	f8cb 2000 	str.w	r2, [fp]
10003d4e:	2b08      	cmp	r3, #8
10003d50:	d8dc      	bhi.n	10003d0c <prvTimerTask+0x5c>
10003d52:	e8df f003 	tbb	[pc, r3]
10003d56:	6161      	.short	0x6161
10003d58:	61c7a5c0 	.word	0x61c7a5c0
10003d5c:	c061      	.short	0xc061
10003d5e:	a5          	.byte	0xa5
10003d5f:	00          	.byte	0x00
10003d60:	f022 0201 	bic.w	r2, r2, #1
10003d64:	f88a 2024 	strb.w	r2, [sl, #36]	@ 0x24
10003d68:	4650      	mov	r0, sl
10003d6a:	f8da 3020 	ldr.w	r3, [sl, #32]
10003d6e:	4798      	blx	r3
10003d70:	683b      	ldr	r3, [r7, #0]
10003d72:	681a      	ldr	r2, [r3, #0]
10003d74:	2a00      	cmp	r2, #0
10003d76:	f000 80d8 	beq.w	10003f2a <prvTimerTask+0x27a>
10003d7a:	68da      	ldr	r2, [r3, #12]
10003d7c:	f8d2 a00c 	ldr.w	sl, [r2, #12]
10003d80:	6814      	ldr	r4, [r2, #0]
10003d82:	f10a 0604 	add.w	r6, sl, #4
10003d86:	4630      	mov	r0, r6
10003d88:	f000 fb84 	bl	10004494 <uxListRemove>
10003d8c:	f89a 2024 	ldrb.w	r2, [sl, #36]	@ 0x24
10003d90:	0751      	lsls	r1, r2, #29
10003d92:	d5e5      	bpl.n	10003d60 <prvTimerTask+0xb0>
10003d94:	e003      	b.n	10003d9e <prvTimerTask+0xee>
10003d96:	4650      	mov	r0, sl
10003d98:	f8da 2020 	ldr.w	r2, [sl, #32]
10003d9c:	4790      	blx	r2
10003d9e:	f8da 2018 	ldr.w	r2, [sl, #24]
10003da2:	f8ca a010 	str.w	sl, [sl, #16]
10003da6:	1911      	adds	r1, r2, r4
10003da8:	18a4      	adds	r4, r4, r2
10003daa:	f8ca 1004 	str.w	r1, [sl, #4]
10003dae:	d3f2      	bcc.n	10003d96 <prvTimerTask+0xe6>
10003db0:	4631      	mov	r1, r6
10003db2:	f8d8 0000 	ldr.w	r0, [r8]
10003db6:	f000 fb55 	bl	10004464 <vListInsert>
10003dba:	e7d5      	b.n	10003d68 <prvTimerTask+0xb8>
10003dbc:	f021 0101 	bic.w	r1, r1, #1
10003dc0:	f889 1024 	strb.w	r1, [r9, #36]	@ 0x24
10003dc4:	4648      	mov	r0, r9
10003dc6:	f8d9 3020 	ldr.w	r3, [r9, #32]
10003dca:	4798      	blx	r3
10003dcc:	683b      	ldr	r3, [r7, #0]
10003dce:	6819      	ldr	r1, [r3, #0]
10003dd0:	2900      	cmp	r1, #0
10003dd2:	f000 80b4 	beq.w	10003f3e <prvTimerTask+0x28e>
10003dd6:	68d9      	ldr	r1, [r3, #12]
10003dd8:	f8d1 900c 	ldr.w	r9, [r1, #12]
10003ddc:	680c      	ldr	r4, [r1, #0]
10003dde:	f109 0604 	add.w	r6, r9, #4
10003de2:	4630      	mov	r0, r6
10003de4:	f000 fb56 	bl	10004494 <uxListRemove>
10003de8:	f899 1024 	ldrb.w	r1, [r9, #36]	@ 0x24
10003dec:	0748      	lsls	r0, r1, #29
10003dee:	d5e5      	bpl.n	10003dbc <prvTimerTask+0x10c>
10003df0:	e003      	b.n	10003dfa <prvTimerTask+0x14a>
10003df2:	4648      	mov	r0, r9
10003df4:	f8d9 1020 	ldr.w	r1, [r9, #32]
10003df8:	4788      	blx	r1
10003dfa:	f8d9 1018 	ldr.w	r1, [r9, #24]
10003dfe:	f8c9 9010 	str.w	r9, [r9, #16]
10003e02:	1908      	adds	r0, r1, r4
10003e04:	1864      	adds	r4, r4, r1
10003e06:	f8c9 0004 	str.w	r0, [r9, #4]
10003e0a:	d3f2      	bcc.n	10003df2 <prvTimerTask+0x142>
10003e0c:	4631      	mov	r1, r6
10003e0e:	f8d8 0000 	ldr.w	r0, [r8]
10003e12:	f000 fb27 	bl	10004464 <vListInsert>
10003e16:	e7d5      	b.n	10003dc4 <prvTimerTask+0x114>
10003e18:	f89a 0024 	ldrb.w	r0, [sl, #36]	@ 0x24
10003e1c:	9903      	ldr	r1, [sp, #12]
10003e1e:	f8da 4018 	ldr.w	r4, [sl, #24]
10003e22:	9a01      	ldr	r2, [sp, #4]
10003e24:	190b      	adds	r3, r1, r4
10003e26:	f040 0601 	orr.w	r6, r0, #1
10003e2a:	f88a 6024 	strb.w	r6, [sl, #36]	@ 0x24
10003e2e:	bf2c      	ite	cs
10003e30:	2601      	movcs	r6, #1
10003e32:	2600      	movcc	r6, #0
10003e34:	4293      	cmp	r3, r2
10003e36:	f8ca 3004 	str.w	r3, [sl, #4]
10003e3a:	f8ca a010 	str.w	sl, [sl, #16]
10003e3e:	f200 8087 	bhi.w	10003f50 <prvTimerTask+0x2a0>
10003e42:	1a51      	subs	r1, r2, r1
10003e44:	428c      	cmp	r4, r1
10003e46:	d83f      	bhi.n	10003ec8 <prvTimerTask+0x218>
10003e48:	0741      	lsls	r1, r0, #29
10003e4a:	d412      	bmi.n	10003e72 <prvTimerTask+0x1c2>
10003e4c:	f020 0001 	bic.w	r0, r0, #1
10003e50:	f88a 0024 	strb.w	r0, [sl, #36]	@ 0x24
10003e54:	4650      	mov	r0, sl
10003e56:	f8da 3020 	ldr.w	r3, [sl, #32]
10003e5a:	4798      	blx	r3
10003e5c:	e756      	b.n	10003d0c <prvTimerTask+0x5c>
10003e5e:	428c      	cmp	r4, r1
10003e60:	f200 80c6 	bhi.w	10003ff0 <prvTimerTask+0x340>
10003e64:	f8da 3020 	ldr.w	r3, [sl, #32]
10003e68:	4650      	mov	r0, sl
10003e6a:	4798      	blx	r3
10003e6c:	4633      	mov	r3, r6
10003e6e:	f8da 4018 	ldr.w	r4, [sl, #24]
10003e72:	9a01      	ldr	r2, [sp, #4]
10003e74:	18e6      	adds	r6, r4, r3
10003e76:	bf2c      	ite	cs
10003e78:	2001      	movcs	r0, #1
10003e7a:	2000      	movcc	r0, #0
10003e7c:	42b2      	cmp	r2, r6
10003e7e:	eba2 0103 	sub.w	r1, r2, r3
10003e82:	f8ca 6004 	str.w	r6, [sl, #4]
10003e86:	f8ca a010 	str.w	sl, [sl, #16]
10003e8a:	d2e8      	bcs.n	10003e5e <prvTimerTask+0x1ae>
10003e8c:	429a      	cmp	r2, r3
10003e8e:	d201      	bcs.n	10003e94 <prvTimerTask+0x1e4>
10003e90:	2800      	cmp	r0, #0
10003e92:	d0e7      	beq.n	10003e64 <prvTimerTask+0x1b4>
10003e94:	6838      	ldr	r0, [r7, #0]
10003e96:	f10a 0104 	add.w	r1, sl, #4
10003e9a:	f000 fae3 	bl	10004464 <vListInsert>
10003e9e:	e7d9      	b.n	10003e54 <prvTimerTask+0x1a4>
10003ea0:	9903      	ldr	r1, [sp, #12]
10003ea2:	9a01      	ldr	r2, [sp, #4]
10003ea4:	f89a 3024 	ldrb.w	r3, [sl, #36]	@ 0x24
10003ea8:	1888      	adds	r0, r1, r2
10003eaa:	f043 0301 	orr.w	r3, r3, #1
10003eae:	4290      	cmp	r0, r2
10003eb0:	f88a 3024 	strb.w	r3, [sl, #36]	@ 0x24
10003eb4:	f8ca 1018 	str.w	r1, [sl, #24]
10003eb8:	f8ca 0004 	str.w	r0, [sl, #4]
10003ebc:	f8ca a010 	str.w	sl, [sl, #16]
10003ec0:	d84b      	bhi.n	10003f5a <prvTimerTask+0x2aa>
10003ec2:	2900      	cmp	r1, #0
10003ec4:	f43f af22 	beq.w	10003d0c <prvTimerTask+0x5c>
10003ec8:	f8d8 0000 	ldr.w	r0, [r8]
10003ecc:	f10a 0104 	add.w	r1, sl, #4
10003ed0:	f000 fac8 	bl	10004464 <vListInsert>
10003ed4:	e71a      	b.n	10003d0c <prvTimerTask+0x5c>
10003ed6:	f89a 3024 	ldrb.w	r3, [sl, #36]	@ 0x24
10003eda:	f023 0301 	bic.w	r3, r3, #1
10003ede:	f88a 3024 	strb.w	r3, [sl, #36]	@ 0x24
10003ee2:	e713      	b.n	10003d0c <prvTimerTask+0x5c>
10003ee4:	f89a 3024 	ldrb.w	r3, [sl, #36]	@ 0x24
10003ee8:	079a      	lsls	r2, r3, #30
10003eea:	d577      	bpl.n	10003fdc <prvTimerTask+0x32c>
10003eec:	f023 0301 	bic.w	r3, r3, #1
10003ef0:	f88a 3024 	strb.w	r3, [sl, #36]	@ 0x24
10003ef4:	e70a      	b.n	10003d0c <prvTimerTask+0x5c>
10003ef6:	9b03      	ldr	r3, [sp, #12]
10003ef8:	9905      	ldr	r1, [sp, #20]
10003efa:	4798      	blx	r3
10003efc:	9b02      	ldr	r3, [sp, #8]
10003efe:	2b00      	cmp	r3, #0
10003f00:	f6ff af04 	blt.w	10003d0c <prvTimerTask+0x5c>
10003f04:	e70e      	b.n	10003d24 <prvTimerTask+0x74>
10003f06:	68db      	ldr	r3, [r3, #12]
10003f08:	681c      	ldr	r4, [r3, #0]
10003f0a:	f7ff fc03 	bl	10003714 <vTaskSuspendAll>
10003f0e:	f7ff fd0b 	bl	10003928 <xTaskGetTickCount>
10003f12:	f8db 3000 	ldr.w	r3, [fp]
10003f16:	4681      	mov	r9, r0
10003f18:	4283      	cmp	r3, r0
10003f1a:	f63f af29 	bhi.w	10003d70 <prvTimerTask+0xc0>
10003f1e:	4284      	cmp	r4, r0
10003f20:	f8cb 0000 	str.w	r0, [fp]
10003f24:	d91f      	bls.n	10003f66 <prvTimerTask+0x2b6>
10003f26:	2200      	movs	r2, #0
10003f28:	e6e1      	b.n	10003cee <prvTimerTask+0x3e>
10003f2a:	f8d8 2000 	ldr.w	r2, [r8]
10003f2e:	f8cb 9000 	str.w	r9, [fp]
10003f32:	603a      	str	r2, [r7, #0]
10003f34:	f8c8 3000 	str.w	r3, [r8]
10003f38:	f7ff fbf4 	bl	10003724 <xTaskResumeAll>
10003f3c:	e6e1      	b.n	10003d02 <prvTimerTask+0x52>
10003f3e:	f8d8 1000 	ldr.w	r1, [r8]
10003f42:	f8c8 3000 	str.w	r3, [r8]
10003f46:	6039      	str	r1, [r7, #0]
10003f48:	e6fc      	b.n	10003d44 <prvTimerTask+0x94>
10003f4a:	f000 f8e9 	bl	10004120 <vPortYield>
10003f4e:	e6d8      	b.n	10003d02 <prvTimerTask+0x52>
10003f50:	4291      	cmp	r1, r2
10003f52:	d902      	bls.n	10003f5a <prvTimerTask+0x2aa>
10003f54:	2e00      	cmp	r6, #0
10003f56:	f43f af77 	beq.w	10003e48 <prvTimerTask+0x198>
10003f5a:	6838      	ldr	r0, [r7, #0]
10003f5c:	f10a 0104 	add.w	r1, sl, #4
10003f60:	f000 fa80 	bl	10004464 <vListInsert>
10003f64:	e6d2      	b.n	10003d0c <prvTimerTask+0x5c>
10003f66:	f7ff fbdd 	bl	10003724 <xTaskResumeAll>
10003f6a:	683b      	ldr	r3, [r7, #0]
10003f6c:	68db      	ldr	r3, [r3, #12]
10003f6e:	68de      	ldr	r6, [r3, #12]
10003f70:	1d33      	adds	r3, r6, #4
10003f72:	4618      	mov	r0, r3
10003f74:	9301      	str	r3, [sp, #4]
10003f76:	f000 fa8d 	bl	10004494 <uxListRemove>
10003f7a:	f896 2024 	ldrb.w	r2, [r6, #36]	@ 0x24
10003f7e:	0753      	lsls	r3, r2, #29
10003f80:	d416      	bmi.n	10003fb0 <prvTimerTask+0x300>
10003f82:	f022 0201 	bic.w	r2, r2, #1
10003f86:	f886 2024 	strb.w	r2, [r6, #36]	@ 0x24
10003f8a:	4630      	mov	r0, r6
10003f8c:	6a33      	ldr	r3, [r6, #32]
10003f8e:	4798      	blx	r3
10003f90:	e6b7      	b.n	10003d02 <prvTimerTask+0x52>
10003f92:	bf00      	nop
10003f94:	200012a4 	.word	0x200012a4
10003f98:	200013fc 	.word	0x200013fc
10003f9c:	200013a8 	.word	0x200013a8
10003fa0:	200012b0 	.word	0x200012b0
10003fa4:	4281      	cmp	r1, r0
10003fa6:	d81d      	bhi.n	10003fe4 <prvTimerTask+0x334>
10003fa8:	4630      	mov	r0, r6
10003faa:	6a31      	ldr	r1, [r6, #32]
10003fac:	4788      	blx	r1
10003fae:	4654      	mov	r4, sl
10003fb0:	69b1      	ldr	r1, [r6, #24]
10003fb2:	eba9 0004 	sub.w	r0, r9, r4
10003fb6:	eb14 0a01 	adds.w	sl, r4, r1
10003fba:	bf2c      	ite	cs
10003fbc:	2301      	movcs	r3, #1
10003fbe:	2300      	movcc	r3, #0
10003fc0:	45ca      	cmp	sl, r9
10003fc2:	f8c6 a004 	str.w	sl, [r6, #4]
10003fc6:	6136      	str	r6, [r6, #16]
10003fc8:	d9ec      	bls.n	10003fa4 <prvTimerTask+0x2f4>
10003fca:	454c      	cmp	r4, r9
10003fcc:	d901      	bls.n	10003fd2 <prvTimerTask+0x322>
10003fce:	2b00      	cmp	r3, #0
10003fd0:	d0ea      	beq.n	10003fa8 <prvTimerTask+0x2f8>
10003fd2:	9901      	ldr	r1, [sp, #4]
10003fd4:	6838      	ldr	r0, [r7, #0]
10003fd6:	f000 fa45 	bl	10004464 <vListInsert>
10003fda:	e7d6      	b.n	10003f8a <prvTimerTask+0x2da>
10003fdc:	4650      	mov	r0, sl
10003fde:	f000 f85d 	bl	1000409c <vPortFree>
10003fe2:	e693      	b.n	10003d0c <prvTimerTask+0x5c>
10003fe4:	9901      	ldr	r1, [sp, #4]
10003fe6:	f8d8 0000 	ldr.w	r0, [r8]
10003fea:	f000 fa3b 	bl	10004464 <vListInsert>
10003fee:	e7cc      	b.n	10003f8a <prvTimerTask+0x2da>
10003ff0:	f8d8 0000 	ldr.w	r0, [r8]
10003ff4:	f10a 0104 	add.w	r1, sl, #4
10003ff8:	f000 fa34 	bl	10004464 <vListInsert>
10003ffc:	e72a      	b.n	10003e54 <prvTimerTask+0x1a4>
10003ffe:	bf00      	nop

10004000 <xTimerCreateTimerTask>:
10004000:	b5f0      	push	{r4, r5, r6, r7, lr}
10004002:	4c17      	ldr	r4, [pc, #92]	@ (10004060 <xTimerCreateTimerTask+0x60>)
10004004:	b083      	sub	sp, #12
10004006:	f000 f897 	bl	10004138 <vPortEnterCritical>
1000400a:	6825      	ldr	r5, [r4, #0]
1000400c:	b17d      	cbz	r5, 1000402e <xTimerCreateTimerTask+0x2e>
1000400e:	f000 f8a1 	bl	10004154 <vPortExitCritical>
10004012:	6820      	ldr	r0, [r4, #0]
10004014:	b148      	cbz	r0, 1000402a <xTimerCreateTimerTask+0x2a>
10004016:	2403      	movs	r4, #3
10004018:	4812      	ldr	r0, [pc, #72]	@ (10004064 <xTimerCreateTimerTask+0x64>)
1000401a:	2300      	movs	r3, #0
1000401c:	9001      	str	r0, [sp, #4]
1000401e:	2280      	movs	r2, #128	@ 0x80
10004020:	4911      	ldr	r1, [pc, #68]	@ (10004068 <xTimerCreateTimerTask+0x68>)
10004022:	4812      	ldr	r0, [pc, #72]	@ (1000406c <xTimerCreateTimerTask+0x6c>)
10004024:	9400      	str	r4, [sp, #0]
10004026:	f7ff fa35 	bl	10003494 <xTaskCreate>
1000402a:	b003      	add	sp, #12
1000402c:	bdf0      	pop	{r4, r5, r6, r7, pc}
1000402e:	4e10      	ldr	r6, [pc, #64]	@ (10004070 <xTimerCreateTimerTask+0x70>)
10004030:	4f10      	ldr	r7, [pc, #64]	@ (10004074 <xTimerCreateTimerTask+0x74>)
10004032:	4630      	mov	r0, r6
10004034:	f000 f9f8 	bl	10004428 <vListInitialise>
10004038:	4638      	mov	r0, r7
1000403a:	f000 f9f5 	bl	10004428 <vListInitialise>
1000403e:	4a0e      	ldr	r2, [pc, #56]	@ (10004078 <xTimerCreateTimerTask+0x78>)
10004040:	4b0e      	ldr	r3, [pc, #56]	@ (1000407c <xTimerCreateTimerTask+0x7c>)
10004042:	6017      	str	r7, [r2, #0]
10004044:	2110      	movs	r1, #16
10004046:	462a      	mov	r2, r5
10004048:	200a      	movs	r0, #10
1000404a:	601e      	str	r6, [r3, #0]
1000404c:	f000 fa36 	bl	100044bc <xQueueGenericCreate>
10004050:	6020      	str	r0, [r4, #0]
10004052:	2800      	cmp	r0, #0
10004054:	d0db      	beq.n	1000400e <xTimerCreateTimerTask+0xe>
10004056:	490a      	ldr	r1, [pc, #40]	@ (10004080 <xTimerCreateTimerTask+0x80>)
10004058:	f000 fbb0 	bl	100047bc <vQueueAddToRegistry>
1000405c:	e7d7      	b.n	1000400e <xTimerCreateTimerTask+0xe>
1000405e:	bf00      	nop
10004060:	200013fc 	.word	0x200013fc
10004064:	20001400 	.word	0x20001400
10004068:	10005968 	.word	0x10005968
1000406c:	10003cb1 	.word	0x10003cb1
10004070:	20001350 	.word	0x20001350
10004074:	20001364 	.word	0x20001364
10004078:	200012b0 	.word	0x200012b0
1000407c:	200012a4 	.word	0x200012a4
10004080:	10005960 	.word	0x10005960

10004084 <pvPortMalloc>:
10004084:	b510      	push	{r4, lr}
10004086:	4604      	mov	r4, r0
10004088:	f7ff fb44 	bl	10003714 <vTaskSuspendAll>
1000408c:	4620      	mov	r0, r4
1000408e:	f7fd f9fb 	bl	10001488 <__wrap_malloc>
10004092:	4604      	mov	r4, r0
10004094:	f7ff fb46 	bl	10003724 <xTaskResumeAll>
10004098:	4620      	mov	r0, r4
1000409a:	bd10      	pop	{r4, pc}

1000409c <vPortFree>:
1000409c:	b150      	cbz	r0, 100040b4 <vPortFree+0x18>
1000409e:	b510      	push	{r4, lr}
100040a0:	4604      	mov	r4, r0
100040a2:	f7ff fb37 	bl	10003714 <vTaskSuspendAll>
100040a6:	4620      	mov	r0, r4
100040a8:	f7fd fa00 	bl	100014ac <__wrap_free>
100040ac:	e8bd 4010 	ldmia.w	sp!, {r4, lr}
100040b0:	f7ff bb38 	b.w	10003724 <xTaskResumeAll>
100040b4:	4770      	bx	lr
100040b6:	bf00      	nop

100040b8 <prvTaskExitError>:
100040b8:	2300      	movs	r3, #0
100040ba:	b500      	push	{lr}
100040bc:	b083      	sub	sp, #12
100040be:	9301      	str	r3, [sp, #4]
100040c0:	f000 f944 	bl	1000434c <ulSetInterruptMask>
100040c4:	9b01      	ldr	r3, [sp, #4]
100040c6:	2b00      	cmp	r3, #0
100040c8:	d0fc      	beq.n	100040c4 <prvTaskExitError+0xc>
100040ca:	b003      	add	sp, #12
100040cc:	f85d fb04 	ldr.w	pc, [sp], #4

100040d0 <isr_systick>:
100040d0:	b510      	push	{r4, lr}
100040d2:	f000 f93b 	bl	1000434c <ulSetInterruptMask>
100040d6:	4604      	mov	r4, r0
100040d8:	f7ff fc2c 	bl	10003934 <xTaskIncrementTick>
100040dc:	b128      	cbz	r0, 100040ea <isr_systick+0x1a>
100040de:	f04f 23e0 	mov.w	r3, #3758153728	@ 0xe000e000
100040e2:	f04f 5280 	mov.w	r2, #268435456	@ 0x10000000
100040e6:	f8c3 2d04 	str.w	r2, [r3, #3332]	@ 0xd04
100040ea:	4620      	mov	r0, r4
100040ec:	e8bd 4010 	ldmia.w	sp!, {r4, lr}
100040f0:	f000 b938 	b.w	10004364 <vClearInterruptMask>

100040f4 <vPortSetupTimerInterrupt>:
100040f4:	b510      	push	{r4, lr}
100040f6:	2204      	movs	r2, #4
100040f8:	f04f 24e0 	mov.w	r4, #3758153728	@ 0xe000e000
100040fc:	2300      	movs	r3, #0
100040fe:	6122      	str	r2, [r4, #16]
10004100:	2005      	movs	r0, #5
10004102:	61a3      	str	r3, [r4, #24]
10004104:	f7fc fec8 	bl	10000e98 <clock_get_hz>
10004108:	2107      	movs	r1, #7
1000410a:	4b04      	ldr	r3, [pc, #16]	@ (1000411c <vPortSetupTimerInterrupt+0x28>)
1000410c:	fba3 2300 	umull	r2, r3, r3, r0
10004110:	099b      	lsrs	r3, r3, #6
10004112:	3b01      	subs	r3, #1
10004114:	6163      	str	r3, [r4, #20]
10004116:	6121      	str	r1, [r4, #16]
10004118:	bd10      	pop	{r4, pc}
1000411a:	bf00      	nop
1000411c:	10624dd3 	.word	0x10624dd3

10004120 <vPortYield>:
10004120:	f04f 23e0 	mov.w	r3, #3758153728	@ 0xe000e000
10004124:	f04f 5280 	mov.w	r2, #268435456	@ 0x10000000
10004128:	f8c3 2d04 	str.w	r2, [r3, #3332]	@ 0xd04
1000412c:	f3bf 8f4f 	dsb	sy
10004130:	f3bf 8f6f 	isb	sy
10004134:	4770      	bx	lr
10004136:	bf00      	nop

10004138 <vPortEnterCritical>:
10004138:	b508      	push	{r3, lr}
1000413a:	f000 f907 	bl	1000434c <ulSetInterruptMask>
1000413e:	4a04      	ldr	r2, [pc, #16]	@ (10004150 <vPortEnterCritical+0x18>)
10004140:	6813      	ldr	r3, [r2, #0]
10004142:	3301      	adds	r3, #1
10004144:	6013      	str	r3, [r2, #0]
10004146:	f3bf 8f4f 	dsb	sy
1000414a:	f3bf 8f6f 	isb	sy
1000414e:	bd08      	pop	{r3, pc}
10004150:	2000095c 	.word	0x2000095c

10004154 <vPortExitCritical>:
10004154:	4b04      	ldr	r3, [pc, #16]	@ (10004168 <vPortExitCritical+0x14>)
10004156:	681a      	ldr	r2, [r3, #0]
10004158:	3a01      	subs	r2, #1
1000415a:	601a      	str	r2, [r3, #0]
1000415c:	6818      	ldr	r0, [r3, #0]
1000415e:	b100      	cbz	r0, 10004162 <vPortExitCritical+0xe>
10004160:	4770      	bx	lr
10004162:	f000 b8ff 	b.w	10004364 <vClearInterruptMask>
10004166:	bf00      	nop
10004168:	2000095c 	.word	0x2000095c

1000416c <vPortSVCHandler_C>:
1000416c:	6983      	ldr	r3, [r0, #24]
1000416e:	f813 3c02 	ldrb.w	r3, [r3, #-2]
10004172:	2b66      	cmp	r3, #102	@ 0x66
10004174:	d000      	beq.n	10004178 <vPortSVCHandler_C+0xc>
10004176:	4770      	bx	lr
10004178:	f04f 23e0 	mov.w	r3, #3758153728	@ 0xe000e000
1000417c:	f8d3 2d88 	ldr.w	r2, [r3, #3464]	@ 0xd88
10004180:	f442 0270 	orr.w	r2, r2, #15728640	@ 0xf00000
10004184:	f8c3 2d88 	str.w	r2, [r3, #3464]	@ 0xd88
10004188:	f8d3 2f34 	ldr.w	r2, [r3, #3892]	@ 0xf34
1000418c:	f042 4240 	orr.w	r2, r2, #3221225472	@ 0xc0000000
10004190:	f8c3 2f34 	str.w	r2, [r3, #3892]	@ 0xf34
10004194:	f000 b8bc 	b.w	10004310 <vRestoreContextOfFirstTask>

10004198 <pxPortInitialiseStack>:
10004198:	e92d 4ff0 	stmdb	sp!, {r4, r5, r6, r7, r8, r9, sl, fp, lr}
1000419c:	f04f 3e11 	mov.w	lr, #286331153	@ 0x11111111
100041a0:	f04f 7480 	mov.w	r4, #16777216	@ 0x1000000
100041a4:	e940 e309 	strd	lr, r3, [r0, #-36]	@ 0x24
100041a8:	f04f 3307 	mov.w	r3, #117901063	@ 0x7070707
100041ac:	f840 4c04 	str.w	r4, [r0, #-4]
100041b0:	4c16      	ldr	r4, [pc, #88]	@ (1000420c <pxPortInitialiseStack+0x74>)
100041b2:	f840 3c34 	str.w	r3, [r0, #-52]
100041b6:	e940 4203 	strd	r4, r2, [r0, #-12]
100041ba:	f04f 3305 	mov.w	r3, #84215045	@ 0x5050505
100041be:	f04f 3206 	mov.w	r2, #101058054	@ 0x6060606
100041c2:	f04f 3b12 	mov.w	fp, #303174162	@ 0x12121212
100041c6:	e940 320f 	strd	r3, r2, [r0, #-60]	@ 0x3c
100041ca:	f04f 3a03 	mov.w	sl, #50529027	@ 0x3030303
100041ce:	f04f 3902 	mov.w	r9, #33686018	@ 0x2020202
100041d2:	f04f 3801 	mov.w	r8, #16843009	@ 0x1010101
100041d6:	f04f 3710 	mov.w	r7, #269488144	@ 0x10101010
100041da:	f04f 3609 	mov.w	r6, #151587081	@ 0x9090909
100041de:	f04f 3508 	mov.w	r5, #134744072	@ 0x8080808
100041e2:	f04f 3404 	mov.w	r4, #67372036	@ 0x4040404
100041e6:	f06f 0302 	mvn.w	r3, #2
100041ea:	e940 ab05 	strd	sl, fp, [r0, #-20]
100041ee:	e940 8907 	strd	r8, r9, [r0, #-28]
100041f2:	e940 670b 	strd	r6, r7, [r0, #-44]	@ 0x2c
100041f6:	f840 5c30 	str.w	r5, [r0, #-48]
100041fa:	f840 4c40 	str.w	r4, [r0, #-64]
100041fe:	f840 3c44 	str.w	r3, [r0, #-68]
10004202:	f840 1d48 	str.w	r1, [r0, #-72]!
10004206:	e8bd 8ff0 	ldmia.w	sp!, {r4, r5, r6, r7, r8, r9, sl, fp, pc}
1000420a:	bf00      	nop
1000420c:	100040b9 	.word	0x100040b9

10004210 <xPortStartScheduler>:
10004210:	f04f 23e0 	mov.w	r3, #3758153728	@ 0xe000e000
10004214:	f04f 427f 	mov.w	r2, #4278190080	@ 0xff000000
10004218:	2100      	movs	r1, #0
1000421a:	b510      	push	{r4, lr}
1000421c:	b084      	sub	sp, #16
1000421e:	9102      	str	r1, [sp, #8]
10004220:	f8c3 2d1c 	str.w	r2, [r3, #3356]	@ 0xd1c
10004224:	f8d3 3d1c 	ldr.w	r3, [r3, #3356]	@ 0xd1c
10004228:	0e1b      	lsrs	r3, r3, #24
1000422a:	f88d 3007 	strb.w	r3, [sp, #7]
1000422e:	f89d 3007 	ldrb.w	r3, [sp, #7]
10004232:	f89d 3007 	ldrb.w	r3, [sp, #7]
10004236:	061a      	lsls	r2, r3, #24
10004238:	d50c      	bpl.n	10004254 <xPortStartScheduler+0x44>
1000423a:	9b02      	ldr	r3, [sp, #8]
1000423c:	3301      	adds	r3, #1
1000423e:	9302      	str	r3, [sp, #8]
10004240:	f89d 3007 	ldrb.w	r3, [sp, #7]
10004244:	005b      	lsls	r3, r3, #1
10004246:	b2db      	uxtb	r3, r3
10004248:	f88d 3007 	strb.w	r3, [sp, #7]
1000424c:	f89d 3007 	ldrb.w	r3, [sp, #7]
10004250:	061b      	lsls	r3, r3, #24
10004252:	d4f2      	bmi.n	1000423a <xPortStartScheduler+0x2a>
10004254:	9b02      	ldr	r3, [sp, #8]
10004256:	2b08      	cmp	r3, #8
10004258:	d03a      	beq.n	100042d0 <xPortStartScheduler+0xc0>
1000425a:	9a02      	ldr	r2, [sp, #8]
1000425c:	f1c2 0207 	rsb	r2, r2, #7
10004260:	0212      	lsls	r2, r2, #8
10004262:	f402 62e0 	and.w	r2, r2, #1792	@ 0x700
10004266:	f04f 23e0 	mov.w	r3, #3758153728	@ 0xe000e000
1000426a:	2400      	movs	r4, #0
1000426c:	4919      	ldr	r1, [pc, #100]	@ (100042d4 <xPortStartScheduler+0xc4>)
1000426e:	200e      	movs	r0, #14
10004270:	600a      	str	r2, [r1, #0]
10004272:	f8d3 2d20 	ldr.w	r2, [r3, #3360]	@ 0xd20
10004276:	4918      	ldr	r1, [pc, #96]	@ (100042d8 <xPortStartScheduler+0xc8>)
10004278:	f442 027f 	orr.w	r2, r2, #16711680	@ 0xff0000
1000427c:	f8c3 2d20 	str.w	r2, [r3, #3360]	@ 0xd20
10004280:	f8d3 2d20 	ldr.w	r2, [r3, #3360]	@ 0xd20
10004284:	f042 427f 	orr.w	r2, r2, #4278190080	@ 0xff000000
10004288:	f8c3 2d20 	str.w	r2, [r3, #3360]	@ 0xd20
1000428c:	f8c3 4d1c 	str.w	r4, [r3, #3356]	@ 0xd1c
10004290:	f7fe fe8c 	bl	10002fac <exception_set_exclusive_handler>
10004294:	4911      	ldr	r1, [pc, #68]	@ (100042dc <xPortStartScheduler+0xcc>)
10004296:	200f      	movs	r0, #15
10004298:	f7fe fe88 	bl	10002fac <exception_set_exclusive_handler>
1000429c:	4910      	ldr	r1, [pc, #64]	@ (100042e0 <xPortStartScheduler+0xd0>)
1000429e:	200b      	movs	r0, #11
100042a0:	f7fe fe84 	bl	10002fac <exception_set_exclusive_handler>
100042a4:	f7ff ff26 	bl	100040f4 <vPortSetupTimerInterrupt>
100042a8:	f04f 4250 	mov.w	r2, #3489660928	@ 0xd0000000
100042ac:	490d      	ldr	r1, [pc, #52]	@ (100042e4 <xPortStartScheduler+0xd4>)
100042ae:	4b0e      	ldr	r3, [pc, #56]	@ (100042e8 <xPortStartScheduler+0xd8>)
100042b0:	600c      	str	r4, [r1, #0]
100042b2:	6812      	ldr	r2, [r2, #0]
100042b4:	701a      	strb	r2, [r3, #0]
100042b6:	f000 f841 	bl	1000433c <vStartFirstTask>
100042ba:	f7ff fb4b 	bl	10003954 <vTaskSwitchContext>
100042be:	9403      	str	r4, [sp, #12]
100042c0:	f000 f844 	bl	1000434c <ulSetInterruptMask>
100042c4:	9b03      	ldr	r3, [sp, #12]
100042c6:	2b00      	cmp	r3, #0
100042c8:	d0fc      	beq.n	100042c4 <xPortStartScheduler+0xb4>
100042ca:	2000      	movs	r0, #0
100042cc:	b004      	add	sp, #16
100042ce:	bd10      	pop	{r4, pc}
100042d0:	2200      	movs	r2, #0
100042d2:	e7c8      	b.n	10004266 <xPortStartScheduler+0x56>
100042d4:	20001338 	.word	0x20001338
100042d8:	10004375 	.word	0x10004375
100042dc:	100040d1 	.word	0x100040d1
100042e0:	100043f5 	.word	0x100043f5
100042e4:	2000095c 	.word	0x2000095c
100042e8:	20000958 	.word	0x20000958

100042ec <prvRuntimeInitializer>:
100042ec:	b508      	push	{r3, lr}
100042ee:	f7fc f8f3 	bl	100004d8 <next_striped_spin_lock_num>
100042f2:	4b04      	ldr	r3, [pc, #16]	@ (10004304 <prvRuntimeInitializer+0x18>)
100042f4:	4a04      	ldr	r2, [pc, #16]	@ (10004308 <prvRuntimeInitializer+0x1c>)
100042f6:	4403      	add	r3, r0
100042f8:	6013      	str	r3, [r2, #0]
100042fa:	f000 f887 	bl	1000440c <xEventGroupCreate>
100042fe:	4b03      	ldr	r3, [pc, #12]	@ (1000430c <prvRuntimeInitializer+0x20>)
10004300:	6018      	str	r0, [r3, #0]
10004302:	bd08      	pop	{r3, pc}
10004304:	20001200 	.word	0x20001200
10004308:	2000129c 	.word	0x2000129c
1000430c:	200013a0 	.word	0x200013a0

10004310 <vRestoreContextOfFirstTask>:
10004310:	4a09      	ldr	r2, [pc, #36]	@ (10004338 <vRestoreContextOfFirstTask+0x28>)
10004312:	6811      	ldr	r1, [r2, #0]
10004314:	6808      	ldr	r0, [r1, #0]
10004316:	c806      	ldmia	r0!, {r1, r2}
10004318:	f381 880b 	msr	PSPLIM, r1
1000431c:	2102      	movs	r1, #2
1000431e:	f381 8814 	msr	CONTROL, r1
10004322:	3020      	adds	r0, #32
10004324:	f380 8809 	msr	PSP, r0
10004328:	f3bf 8f6f 	isb	sy
1000432c:	f04f 0000 	mov.w	r0, #0
10004330:	f380 8811 	msr	BASEPRI, r0
10004334:	4710      	bx	r2
10004336:	0000      	.short	0x0000
10004338:	200012a0 	.word	0x200012a0

1000433c <vStartFirstTask>:
1000433c:	b662      	cpsie	i
1000433e:	b661      	cpsie	f
10004340:	f3bf 8f4f 	dsb	sy
10004344:	f3bf 8f6f 	isb	sy
10004348:	df66      	svc	102	@ 0x66
1000434a:	bf00      	nop

1000434c <ulSetInterruptMask>:
1000434c:	f3ef 8011 	mrs	r0, BASEPRI
10004350:	f04f 0110 	mov.w	r1, #16
10004354:	f381 8811 	msr	BASEPRI, r1
10004358:	f3bf 8f4f 	dsb	sy
1000435c:	f3bf 8f6f 	isb	sy
10004360:	4770      	bx	lr
10004362:	bf00      	nop

10004364 <vClearInterruptMask>:
10004364:	f380 8811 	msr	BASEPRI, r0
10004368:	f3bf 8f4f 	dsb	sy
1000436c:	f3bf 8f6f 	isb	sy
10004370:	4770      	bx	lr
10004372:	bf00      	nop

10004374 <isr_pendsv>:
10004374:	f3ef 8109 	mrs	r1, PSP
10004378:	f01e 0f10 	tst.w	lr, #16
1000437c:	bf08      	it	eq
1000437e:	ed21 8a10 	vstmdbeq	r1!, {s16-s31}
10004382:	f3ef 820b 	mrs	r2, PSPLIM
10004386:	4673      	mov	r3, lr
10004388:	e921 0ffc 	stmdb	r1!, {r2, r3, r4, r5, r6, r7, r8, r9, sl, fp}
1000438c:	fc55 4408 	dcp_pxmd r4, r5
10004390:	fc57 6409 	dcp_pymd r6, r7
10004394:	fc59 840a 	dcp_pefd r8, r9
10004398:	e901 03f0 	stmdb	r1, {r4, r5, r6, r7, r8, r9}
1000439c:	4a14      	ldr	r2, [pc, #80]	@ (100043f0 <isr_pendsv+0x7c>)
1000439e:	6813      	ldr	r3, [r2, #0]
100043a0:	6019      	str	r1, [r3, #0]
100043a2:	f04f 0110 	mov.w	r1, #16
100043a6:	f381 8811 	msr	BASEPRI, r1
100043aa:	f3bf 8f4f 	dsb	sy
100043ae:	f3bf 8f6f 	isb	sy
100043b2:	f7ff facf 	bl	10003954 <vTaskSwitchContext>
100043b6:	f04f 0000 	mov.w	r0, #0
100043ba:	f380 8811 	msr	BASEPRI, r0
100043be:	4a0c      	ldr	r2, [pc, #48]	@ (100043f0 <isr_pendsv+0x7c>)
100043c0:	6811      	ldr	r1, [r2, #0]
100043c2:	6808      	ldr	r0, [r1, #0]
100043c4:	3818      	subs	r0, #24
100043c6:	e8b0 03f0 	ldmia.w	r0!, {r4, r5, r6, r7, r8, r9}
100043ca:	ec45 4400 	dcp_wxmd r4, r5
100043ce:	ec47 6401 	dcp_wymd r6, r7
100043d2:	ec49 8402 	dcp_wefd r8, r9
100043d6:	e8b0 0ffc 	ldmia.w	r0!, {r2, r3, r4, r5, r6, r7, r8, r9, sl, fp}
100043da:	f013 0f10 	tst.w	r3, #16
100043de:	bf08      	it	eq
100043e0:	ecb0 8a10 	vldmiaeq	r0!, {s16-s31}
100043e4:	f382 880b 	msr	PSPLIM, r2
100043e8:	f380 8809 	msr	PSP, r0
100043ec:	4718      	bx	r3
100043ee:	0000      	.short	0x0000
100043f0:	200012a0 	.word	0x200012a0

100043f4 <isr_svcall>:
100043f4:	f01e 0f04 	tst.w	lr, #4
100043f8:	bf0c      	ite	eq
100043fa:	f3ef 8008 	mrseq	r0, MSP
100043fe:	f3ef 8009 	mrsne	r0, PSP
10004402:	4901      	ldr	r1, [pc, #4]	@ (10004408 <isr_svcall+0x14>)
10004404:	4708      	bx	r1
10004406:	0000      	.short	0x0000
10004408:	1000416d 	.word	0x1000416d

1000440c <xEventGroupCreate>:
1000440c:	b510      	push	{r4, lr}
1000440e:	2018      	movs	r0, #24
10004410:	f7ff fe38 	bl	10004084 <pvPortMalloc>
10004414:	4604      	mov	r4, r0
10004416:	b120      	cbz	r0, 10004422 <xEventGroupCreate+0x16>
10004418:	2300      	movs	r3, #0
1000441a:	f840 3b04 	str.w	r3, [r0], #4
1000441e:	f000 f803 	bl	10004428 <vListInitialise>
10004422:	4620      	mov	r0, r4
10004424:	bd10      	pop	{r4, pc}
10004426:	bf00      	nop

10004428 <vListInitialise>:
10004428:	f04f 31ff 	mov.w	r1, #4294967295
1000442c:	2200      	movs	r2, #0
1000442e:	f100 0308 	add.w	r3, r0, #8
10004432:	e9c0 3101 	strd	r3, r1, [r0, #4]
10004436:	e9c0 3303 	strd	r3, r3, [r0, #12]
1000443a:	6002      	str	r2, [r0, #0]
1000443c:	4770      	bx	lr
1000443e:	bf00      	nop

10004440 <vListInitialiseItem>:
10004440:	2300      	movs	r3, #0
10004442:	6103      	str	r3, [r0, #16]
10004444:	4770      	bx	lr
10004446:	bf00      	nop

10004448 <vListInsertEnd>:
10004448:	b410      	push	{r4}
1000444a:	e9d0 3200 	ldrd	r3, r2, [r0]
1000444e:	6894      	ldr	r4, [r2, #8]
10004450:	3301      	adds	r3, #1
10004452:	e9c1 2401 	strd	r2, r4, [r1, #4]
10004456:	6061      	str	r1, [r4, #4]
10004458:	6091      	str	r1, [r2, #8]
1000445a:	f85d 4b04 	ldr.w	r4, [sp], #4
1000445e:	6108      	str	r0, [r1, #16]
10004460:	6003      	str	r3, [r0, #0]
10004462:	4770      	bx	lr

10004464 <vListInsert>:
10004464:	b430      	push	{r4, r5}
10004466:	680d      	ldr	r5, [r1, #0]
10004468:	1c6b      	adds	r3, r5, #1
1000446a:	d010      	beq.n	1000448e <vListInsert+0x2a>
1000446c:	f100 0308 	add.w	r3, r0, #8
10004470:	461c      	mov	r4, r3
10004472:	685b      	ldr	r3, [r3, #4]
10004474:	681a      	ldr	r2, [r3, #0]
10004476:	42aa      	cmp	r2, r5
10004478:	d9fa      	bls.n	10004470 <vListInsert+0xc>
1000447a:	6802      	ldr	r2, [r0, #0]
1000447c:	604b      	str	r3, [r1, #4]
1000447e:	3201      	adds	r2, #1
10004480:	6099      	str	r1, [r3, #8]
10004482:	608c      	str	r4, [r1, #8]
10004484:	6061      	str	r1, [r4, #4]
10004486:	6108      	str	r0, [r1, #16]
10004488:	bc30      	pop	{r4, r5}
1000448a:	6002      	str	r2, [r0, #0]
1000448c:	4770      	bx	lr
1000448e:	6904      	ldr	r4, [r0, #16]
10004490:	6863      	ldr	r3, [r4, #4]
10004492:	e7f2      	b.n	1000447a <vListInsert+0x16>

10004494 <uxListRemove>:
10004494:	4603      	mov	r3, r0
10004496:	6902      	ldr	r2, [r0, #16]
10004498:	b410      	push	{r4}
1000449a:	6854      	ldr	r4, [r2, #4]
1000449c:	6840      	ldr	r0, [r0, #4]
1000449e:	6899      	ldr	r1, [r3, #8]
100044a0:	429c      	cmp	r4, r3
100044a2:	6081      	str	r1, [r0, #8]
100044a4:	6048      	str	r0, [r1, #4]
100044a6:	bf08      	it	eq
100044a8:	6051      	streq	r1, [r2, #4]
100044aa:	2100      	movs	r1, #0
100044ac:	6810      	ldr	r0, [r2, #0]
100044ae:	f85d 4b04 	ldr.w	r4, [sp], #4
100044b2:	3801      	subs	r0, #1
100044b4:	6119      	str	r1, [r3, #16]
100044b6:	6010      	str	r0, [r2, #0]
100044b8:	4770      	bx	lr
100044ba:	bf00      	nop

100044bc <xQueueGenericCreate>:
100044bc:	b570      	push	{r4, r5, r6, lr}
100044be:	b3a0      	cbz	r0, 1000452a <xQueueGenericCreate+0x6e>
100044c0:	fba1 2300 	umull	r2, r3, r1, r0
100044c4:	4605      	mov	r5, r0
100044c6:	460e      	mov	r6, r1
100044c8:	bb7b      	cbnz	r3, 1000452a <xQueueGenericCreate+0x6e>
100044ca:	fb01 f000 	mul.w	r0, r1, r0
100044ce:	f110 0f49 	cmn.w	r0, #73	@ 0x49
100044d2:	d82a      	bhi.n	1000452a <xQueueGenericCreate+0x6e>
100044d4:	3048      	adds	r0, #72	@ 0x48
100044d6:	f7ff fdd5 	bl	10004084 <pvPortMalloc>
100044da:	4604      	mov	r4, r0
100044dc:	b328      	cbz	r0, 1000452a <xQueueGenericCreate+0x6e>
100044de:	b33e      	cbz	r6, 10004530 <xQueueGenericCreate+0x74>
100044e0:	f100 0348 	add.w	r3, r0, #72	@ 0x48
100044e4:	6023      	str	r3, [r4, #0]
100044e6:	e9c4 560f 	strd	r5, r6, [r4, #60]	@ 0x3c
100044ea:	f7ff fe25 	bl	10004138 <vPortEnterCritical>
100044ee:	2300      	movs	r3, #0
100044f0:	20ff      	movs	r0, #255	@ 0xff
100044f2:	63a3      	str	r3, [r4, #56]	@ 0x38
100044f4:	6c21      	ldr	r1, [r4, #64]	@ 0x40
100044f6:	6be3      	ldr	r3, [r4, #60]	@ 0x3c
100044f8:	6822      	ldr	r2, [r4, #0]
100044fa:	fb01 f303 	mul.w	r3, r1, r3
100044fe:	1a59      	subs	r1, r3, r1
10004500:	6062      	str	r2, [r4, #4]
10004502:	4413      	add	r3, r2
10004504:	440a      	add	r2, r1
10004506:	e9c4 3202 	strd	r3, r2, [r4, #8]
1000450a:	f884 0044 	strb.w	r0, [r4, #68]	@ 0x44
1000450e:	f884 0045 	strb.w	r0, [r4, #69]	@ 0x45
10004512:	f104 0010 	add.w	r0, r4, #16
10004516:	f7ff ff87 	bl	10004428 <vListInitialise>
1000451a:	f104 0024 	add.w	r0, r4, #36	@ 0x24
1000451e:	f7ff ff83 	bl	10004428 <vListInitialise>
10004522:	f7ff fe17 	bl	10004154 <vPortExitCritical>
10004526:	4620      	mov	r0, r4
10004528:	bd70      	pop	{r4, r5, r6, pc}
1000452a:	2400      	movs	r4, #0
1000452c:	4620      	mov	r0, r4
1000452e:	bd70      	pop	{r4, r5, r6, pc}
10004530:	4603      	mov	r3, r0
10004532:	e7d7      	b.n	100044e4 <xQueueGenericCreate+0x28>

10004534 <xQueueReceive>:
10004534:	e92d 43f0 	stmdb	sp!, {r4, r5, r6, r7, r8, r9, lr}
10004538:	4604      	mov	r4, r0
1000453a:	b085      	sub	sp, #20
1000453c:	4688      	mov	r8, r1
1000453e:	9201      	str	r2, [sp, #4]
10004540:	f7ff fdfa 	bl	10004138 <vPortEnterCritical>
10004544:	6ba5      	ldr	r5, [r4, #56]	@ 0x38
10004546:	2d00      	cmp	r5, #0
10004548:	f040 8117 	bne.w	1000477a <xQueueReceive+0x246>
1000454c:	9b01      	ldr	r3, [sp, #4]
1000454e:	2b00      	cmp	r3, #0
10004550:	f000 80c6 	beq.w	100046e0 <xQueueReceive+0x1ac>
10004554:	a802      	add	r0, sp, #8
10004556:	f7ff fb69 	bl	10003c2c <vTaskInternalSetTimeOutState>
1000455a:	462f      	mov	r7, r5
1000455c:	f104 0624 	add.w	r6, r4, #36	@ 0x24
10004560:	f7ff fdf8 	bl	10004154 <vPortExitCritical>
10004564:	f7ff f8d6 	bl	10003714 <vTaskSuspendAll>
10004568:	f7ff fde6 	bl	10004138 <vPortEnterCritical>
1000456c:	f894 3044 	ldrb.w	r3, [r4, #68]	@ 0x44
10004570:	2bff      	cmp	r3, #255	@ 0xff
10004572:	bf08      	it	eq
10004574:	f884 7044 	strbeq.w	r7, [r4, #68]	@ 0x44
10004578:	f894 3045 	ldrb.w	r3, [r4, #69]	@ 0x45
1000457c:	2bff      	cmp	r3, #255	@ 0xff
1000457e:	bf08      	it	eq
10004580:	f884 7045 	strbeq.w	r7, [r4, #69]	@ 0x45
10004584:	f7ff fde6 	bl	10004154 <vPortExitCritical>
10004588:	a901      	add	r1, sp, #4
1000458a:	a802      	add	r0, sp, #8
1000458c:	f7ff fb5a 	bl	10003c44 <xTaskCheckForTimeOut>
10004590:	2800      	cmp	r0, #0
10004592:	d154      	bne.n	1000463e <xQueueReceive+0x10a>
10004594:	f7ff fdd0 	bl	10004138 <vPortEnterCritical>
10004598:	6ba3      	ldr	r3, [r4, #56]	@ 0x38
1000459a:	2b00      	cmp	r3, #0
1000459c:	f040 80a6 	bne.w	100046ec <xQueueReceive+0x1b8>
100045a0:	f104 0924 	add.w	r9, r4, #36	@ 0x24
100045a4:	f7ff fdd6 	bl	10004154 <vPortExitCritical>
100045a8:	4648      	mov	r0, r9
100045aa:	9901      	ldr	r1, [sp, #4]
100045ac:	f7ff fa24 	bl	100039f8 <vTaskPlaceOnEventList>
100045b0:	f7ff fdc2 	bl	10004138 <vPortEnterCritical>
100045b4:	f894 3045 	ldrb.w	r3, [r4, #69]	@ 0x45
100045b8:	b25d      	sxtb	r5, r3
100045ba:	2d00      	cmp	r5, #0
100045bc:	dc04      	bgt.n	100045c8 <xQueueReceive+0x94>
100045be:	e011      	b.n	100045e4 <xQueueReceive+0xb0>
100045c0:	1e6b      	subs	r3, r5, #1
100045c2:	b2da      	uxtb	r2, r3
100045c4:	b25d      	sxtb	r5, r3
100045c6:	b16a      	cbz	r2, 100045e4 <xQueueReceive+0xb0>
100045c8:	6a63      	ldr	r3, [r4, #36]	@ 0x24
100045ca:	b15b      	cbz	r3, 100045e4 <xQueueReceive+0xb0>
100045cc:	4648      	mov	r0, r9
100045ce:	f7ff fac5 	bl	10003b5c <xTaskRemoveFromEventList>
100045d2:	2800      	cmp	r0, #0
100045d4:	d0f4      	beq.n	100045c0 <xQueueReceive+0x8c>
100045d6:	f7ff fb65 	bl	10003ca4 <vTaskMissedYield>
100045da:	1e6b      	subs	r3, r5, #1
100045dc:	b2da      	uxtb	r2, r3
100045de:	b25d      	sxtb	r5, r3
100045e0:	2a00      	cmp	r2, #0
100045e2:	d1f1      	bne.n	100045c8 <xQueueReceive+0x94>
100045e4:	23ff      	movs	r3, #255	@ 0xff
100045e6:	f884 3045 	strb.w	r3, [r4, #69]	@ 0x45
100045ea:	f7ff fdb3 	bl	10004154 <vPortExitCritical>
100045ee:	f7ff fda3 	bl	10004138 <vPortEnterCritical>
100045f2:	f894 3044 	ldrb.w	r3, [r4, #68]	@ 0x44
100045f6:	b25d      	sxtb	r5, r3
100045f8:	2d00      	cmp	r5, #0
100045fa:	dd14      	ble.n	10004626 <xQueueReceive+0xf2>
100045fc:	f104 0910 	add.w	r9, r4, #16
10004600:	e003      	b.n	1000460a <xQueueReceive+0xd6>
10004602:	1e6b      	subs	r3, r5, #1
10004604:	b2da      	uxtb	r2, r3
10004606:	b25d      	sxtb	r5, r3
10004608:	b16a      	cbz	r2, 10004626 <xQueueReceive+0xf2>
1000460a:	6923      	ldr	r3, [r4, #16]
1000460c:	b15b      	cbz	r3, 10004626 <xQueueReceive+0xf2>
1000460e:	4648      	mov	r0, r9
10004610:	f7ff faa4 	bl	10003b5c <xTaskRemoveFromEventList>
10004614:	2800      	cmp	r0, #0
10004616:	d0f4      	beq.n	10004602 <xQueueReceive+0xce>
10004618:	f7ff fb44 	bl	10003ca4 <vTaskMissedYield>
1000461c:	1e6b      	subs	r3, r5, #1
1000461e:	b2da      	uxtb	r2, r3
10004620:	b25d      	sxtb	r5, r3
10004622:	2a00      	cmp	r2, #0
10004624:	d1f1      	bne.n	1000460a <xQueueReceive+0xd6>
10004626:	23ff      	movs	r3, #255	@ 0xff
10004628:	f884 3044 	strb.w	r3, [r4, #68]	@ 0x44
1000462c:	f7ff fd92 	bl	10004154 <vPortExitCritical>
10004630:	f7ff f878 	bl	10003724 <xTaskResumeAll>
10004634:	2800      	cmp	r0, #0
10004636:	d14a      	bne.n	100046ce <xQueueReceive+0x19a>
10004638:	f7ff fd72 	bl	10004120 <vPortYield>
1000463c:	e047      	b.n	100046ce <xQueueReceive+0x19a>
1000463e:	f7ff fd7b 	bl	10004138 <vPortEnterCritical>
10004642:	f894 3045 	ldrb.w	r3, [r4, #69]	@ 0x45
10004646:	b25d      	sxtb	r5, r3
10004648:	2d00      	cmp	r5, #0
1000464a:	dc04      	bgt.n	10004656 <xQueueReceive+0x122>
1000464c:	e011      	b.n	10004672 <xQueueReceive+0x13e>
1000464e:	1e6b      	subs	r3, r5, #1
10004650:	b2da      	uxtb	r2, r3
10004652:	b25d      	sxtb	r5, r3
10004654:	b16a      	cbz	r2, 10004672 <xQueueReceive+0x13e>
10004656:	6a63      	ldr	r3, [r4, #36]	@ 0x24
10004658:	b15b      	cbz	r3, 10004672 <xQueueReceive+0x13e>
1000465a:	4630      	mov	r0, r6
1000465c:	f7ff fa7e 	bl	10003b5c <xTaskRemoveFromEventList>
10004660:	2800      	cmp	r0, #0
10004662:	d0f4      	beq.n	1000464e <xQueueReceive+0x11a>
10004664:	f7ff fb1e 	bl	10003ca4 <vTaskMissedYield>
10004668:	1e6b      	subs	r3, r5, #1
1000466a:	b2da      	uxtb	r2, r3
1000466c:	b25d      	sxtb	r5, r3
1000466e:	2a00      	cmp	r2, #0
10004670:	d1f1      	bne.n	10004656 <xQueueReceive+0x122>
10004672:	23ff      	movs	r3, #255	@ 0xff
10004674:	f884 3045 	strb.w	r3, [r4, #69]	@ 0x45
10004678:	f7ff fd6c 	bl	10004154 <vPortExitCritical>
1000467c:	f7ff fd5c 	bl	10004138 <vPortEnterCritical>
10004680:	f894 3044 	ldrb.w	r3, [r4, #68]	@ 0x44
10004684:	b25d      	sxtb	r5, r3
10004686:	2d00      	cmp	r5, #0
10004688:	dd14      	ble.n	100046b4 <xQueueReceive+0x180>
1000468a:	f104 0910 	add.w	r9, r4, #16
1000468e:	e003      	b.n	10004698 <xQueueReceive+0x164>
10004690:	1e6b      	subs	r3, r5, #1
10004692:	b2da      	uxtb	r2, r3
10004694:	b25d      	sxtb	r5, r3
10004696:	b16a      	cbz	r2, 100046b4 <xQueueReceive+0x180>
10004698:	6923      	ldr	r3, [r4, #16]
1000469a:	b15b      	cbz	r3, 100046b4 <xQueueReceive+0x180>
1000469c:	4648      	mov	r0, r9
1000469e:	f7ff fa5d 	bl	10003b5c <xTaskRemoveFromEventList>
100046a2:	2800      	cmp	r0, #0
100046a4:	d0f4      	beq.n	10004690 <xQueueReceive+0x15c>
100046a6:	f7ff fafd 	bl	10003ca4 <vTaskMissedYield>
100046aa:	1e6b      	subs	r3, r5, #1
100046ac:	b2da      	uxtb	r2, r3
100046ae:	b25d      	sxtb	r5, r3
100046b0:	2a00      	cmp	r2, #0
100046b2:	d1f1      	bne.n	10004698 <xQueueReceive+0x164>
100046b4:	23ff      	movs	r3, #255	@ 0xff
100046b6:	f884 3044 	strb.w	r3, [r4, #68]	@ 0x44
100046ba:	f7ff fd4b 	bl	10004154 <vPortExitCritical>
100046be:	f7ff f831 	bl	10003724 <xTaskResumeAll>
100046c2:	f7ff fd39 	bl	10004138 <vPortEnterCritical>
100046c6:	6ba3      	ldr	r3, [r4, #56]	@ 0x38
100046c8:	b153      	cbz	r3, 100046e0 <xQueueReceive+0x1ac>
100046ca:	f7ff fd43 	bl	10004154 <vPortExitCritical>
100046ce:	f7ff fd33 	bl	10004138 <vPortEnterCritical>
100046d2:	6ba5      	ldr	r5, [r4, #56]	@ 0x38
100046d4:	2d00      	cmp	r5, #0
100046d6:	d150      	bne.n	1000477a <xQueueReceive+0x246>
100046d8:	9b01      	ldr	r3, [sp, #4]
100046da:	2b00      	cmp	r3, #0
100046dc:	f47f af40 	bne.w	10004560 <xQueueReceive+0x2c>
100046e0:	f7ff fd38 	bl	10004154 <vPortExitCritical>
100046e4:	2000      	movs	r0, #0
100046e6:	b005      	add	sp, #20
100046e8:	e8bd 83f0 	ldmia.w	sp!, {r4, r5, r6, r7, r8, r9, pc}
100046ec:	f7ff fd32 	bl	10004154 <vPortExitCritical>
100046f0:	f7ff fd22 	bl	10004138 <vPortEnterCritical>
100046f4:	f894 3045 	ldrb.w	r3, [r4, #69]	@ 0x45
100046f8:	b25d      	sxtb	r5, r3
100046fa:	2d00      	cmp	r5, #0
100046fc:	dd14      	ble.n	10004728 <xQueueReceive+0x1f4>
100046fe:	f104 0924 	add.w	r9, r4, #36	@ 0x24
10004702:	e003      	b.n	1000470c <xQueueReceive+0x1d8>
10004704:	1e6b      	subs	r3, r5, #1
10004706:	b2da      	uxtb	r2, r3
10004708:	b25d      	sxtb	r5, r3
1000470a:	b16a      	cbz	r2, 10004728 <xQueueReceive+0x1f4>
1000470c:	6a63      	ldr	r3, [r4, #36]	@ 0x24
1000470e:	b15b      	cbz	r3, 10004728 <xQueueReceive+0x1f4>
10004710:	4648      	mov	r0, r9
10004712:	f7ff fa23 	bl	10003b5c <xTaskRemoveFromEventList>
10004716:	2800      	cmp	r0, #0
10004718:	d0f4      	beq.n	10004704 <xQueueReceive+0x1d0>
1000471a:	f7ff fac3 	bl	10003ca4 <vTaskMissedYield>
1000471e:	1e6b      	subs	r3, r5, #1
10004720:	b2da      	uxtb	r2, r3
10004722:	b25d      	sxtb	r5, r3
10004724:	2a00      	cmp	r2, #0
10004726:	d1f1      	bne.n	1000470c <xQueueReceive+0x1d8>
10004728:	23ff      	movs	r3, #255	@ 0xff
1000472a:	f884 3045 	strb.w	r3, [r4, #69]	@ 0x45
1000472e:	f7ff fd11 	bl	10004154 <vPortExitCritical>
10004732:	f7ff fd01 	bl	10004138 <vPortEnterCritical>
10004736:	f894 3044 	ldrb.w	r3, [r4, #68]	@ 0x44
1000473a:	b25d      	sxtb	r5, r3
1000473c:	2d00      	cmp	r5, #0
1000473e:	dd14      	ble.n	1000476a <xQueueReceive+0x236>
10004740:	f104 0910 	add.w	r9, r4, #16
10004744:	e003      	b.n	1000474e <xQueueReceive+0x21a>
10004746:	1e6b      	subs	r3, r5, #1
10004748:	b2da      	uxtb	r2, r3
1000474a:	b25d      	sxtb	r5, r3
1000474c:	b16a      	cbz	r2, 1000476a <xQueueReceive+0x236>
1000474e:	6923      	ldr	r3, [r4, #16]
10004750:	b15b      	cbz	r3, 1000476a <xQueueReceive+0x236>
10004752:	4648      	mov	r0, r9
10004754:	f7ff fa02 	bl	10003b5c <xTaskRemoveFromEventList>
10004758:	2800      	cmp	r0, #0
1000475a:	d0f4      	beq.n	10004746 <xQueueReceive+0x212>
1000475c:	f7ff faa2 	bl	10003ca4 <vTaskMissedYield>
10004760:	1e6b      	subs	r3, r5, #1
10004762:	b2da      	uxtb	r2, r3
10004764:	b25d      	sxtb	r5, r3
10004766:	2a00      	cmp	r2, #0
10004768:	d1f1      	bne.n	1000474e <xQueueReceive+0x21a>
1000476a:	23ff      	movs	r3, #255	@ 0xff
1000476c:	f884 3044 	strb.w	r3, [r4, #68]	@ 0x44
10004770:	f7ff fcf0 	bl	10004154 <vPortExitCritical>
10004774:	f7fe ffd6 	bl	10003724 <xTaskResumeAll>
10004778:	e7a9      	b.n	100046ce <xQueueReceive+0x19a>
1000477a:	6c22      	ldr	r2, [r4, #64]	@ 0x40
1000477c:	b15a      	cbz	r2, 10004796 <xQueueReceive+0x262>
1000477e:	68e1      	ldr	r1, [r4, #12]
10004780:	68a3      	ldr	r3, [r4, #8]
10004782:	4411      	add	r1, r2
10004784:	4299      	cmp	r1, r3
10004786:	60e1      	str	r1, [r4, #12]
10004788:	bf28      	it	cs
1000478a:	6821      	ldrcs	r1, [r4, #0]
1000478c:	4640      	mov	r0, r8
1000478e:	bf28      	it	cs
10004790:	60e1      	strcs	r1, [r4, #12]
10004792:	f000 fe29 	bl	100053e8 <memcpy>
10004796:	6923      	ldr	r3, [r4, #16]
10004798:	3d01      	subs	r5, #1
1000479a:	63a5      	str	r5, [r4, #56]	@ 0x38
1000479c:	b92b      	cbnz	r3, 100047aa <xQueueReceive+0x276>
1000479e:	f7ff fcd9 	bl	10004154 <vPortExitCritical>
100047a2:	2001      	movs	r0, #1
100047a4:	b005      	add	sp, #20
100047a6:	e8bd 83f0 	ldmia.w	sp!, {r4, r5, r6, r7, r8, r9, pc}
100047aa:	f104 0010 	add.w	r0, r4, #16
100047ae:	f7ff f9d5 	bl	10003b5c <xTaskRemoveFromEventList>
100047b2:	2800      	cmp	r0, #0
100047b4:	d0f3      	beq.n	1000479e <xQueueReceive+0x26a>
100047b6:	f7ff fcb3 	bl	10004120 <vPortYield>
100047ba:	e7f0      	b.n	1000479e <xQueueReceive+0x26a>

100047bc <vQueueAddToRegistry>:
100047bc:	2900      	cmp	r1, #0
100047be:	d06b      	beq.n	10004898 <vQueueAddToRegistry+0xdc>
100047c0:	4b56      	ldr	r3, [pc, #344]	@ (1000491c <vQueueAddToRegistry+0x160>)
100047c2:	685a      	ldr	r2, [r3, #4]
100047c4:	4290      	cmp	r0, r2
100047c6:	f000 808b 	beq.w	100048e0 <vQueueAddToRegistry+0x124>
100047ca:	681a      	ldr	r2, [r3, #0]
100047cc:	b410      	push	{r4}
100047ce:	2a00      	cmp	r2, #0
100047d0:	d03b      	beq.n	1000484a <vQueueAddToRegistry+0x8e>
100047d2:	68da      	ldr	r2, [r3, #12]
100047d4:	4290      	cmp	r0, r2
100047d6:	f000 809e 	beq.w	10004916 <vQueueAddToRegistry+0x15a>
100047da:	689a      	ldr	r2, [r3, #8]
100047dc:	2a00      	cmp	r2, #0
100047de:	d055      	beq.n	1000488c <vQueueAddToRegistry+0xd0>
100047e0:	695a      	ldr	r2, [r3, #20]
100047e2:	4290      	cmp	r0, r2
100047e4:	f000 8095 	beq.w	10004912 <vQueueAddToRegistry+0x156>
100047e8:	691a      	ldr	r2, [r3, #16]
100047ea:	2a00      	cmp	r2, #0
100047ec:	d055      	beq.n	1000489a <vQueueAddToRegistry+0xde>
100047ee:	69da      	ldr	r2, [r3, #28]
100047f0:	4290      	cmp	r0, r2
100047f2:	f000 8082 	beq.w	100048fa <vQueueAddToRegistry+0x13e>
100047f6:	699a      	ldr	r2, [r3, #24]
100047f8:	2a00      	cmp	r2, #0
100047fa:	d054      	beq.n	100048a6 <vQueueAddToRegistry+0xea>
100047fc:	6a5a      	ldr	r2, [r3, #36]	@ 0x24
100047fe:	4290      	cmp	r0, r2
10004800:	d056      	beq.n	100048b0 <vQueueAddToRegistry+0xf4>
10004802:	6a1a      	ldr	r2, [r3, #32]
10004804:	2a00      	cmp	r2, #0
10004806:	d057      	beq.n	100048b8 <vQueueAddToRegistry+0xfc>
10004808:	6ada      	ldr	r2, [r3, #44]	@ 0x2c
1000480a:	4290      	cmp	r0, r2
1000480c:	d077      	beq.n	100048fe <vQueueAddToRegistry+0x142>
1000480e:	6a9a      	ldr	r2, [r3, #40]	@ 0x28
10004810:	2a00      	cmp	r2, #0
10004812:	d056      	beq.n	100048c2 <vQueueAddToRegistry+0x106>
10004814:	6b5a      	ldr	r2, [r3, #52]	@ 0x34
10004816:	4290      	cmp	r0, r2
10004818:	d073      	beq.n	10004902 <vQueueAddToRegistry+0x146>
1000481a:	6b1a      	ldr	r2, [r3, #48]	@ 0x30
1000481c:	2a00      	cmp	r2, #0
1000481e:	d055      	beq.n	100048cc <vQueueAddToRegistry+0x110>
10004820:	6bda      	ldr	r2, [r3, #60]	@ 0x3c
10004822:	4290      	cmp	r0, r2
10004824:	d06f      	beq.n	10004906 <vQueueAddToRegistry+0x14a>
10004826:	6b9a      	ldr	r2, [r3, #56]	@ 0x38
10004828:	2a00      	cmp	r2, #0
1000482a:	d054      	beq.n	100048d6 <vQueueAddToRegistry+0x11a>
1000482c:	6c5a      	ldr	r2, [r3, #68]	@ 0x44
1000482e:	4290      	cmp	r0, r2
10004830:	d06b      	beq.n	1000490a <vQueueAddToRegistry+0x14e>
10004832:	6c1a      	ldr	r2, [r3, #64]	@ 0x40
10004834:	2a00      	cmp	r2, #0
10004836:	d059      	beq.n	100048ec <vQueueAddToRegistry+0x130>
10004838:	6cda      	ldr	r2, [r3, #76]	@ 0x4c
1000483a:	4290      	cmp	r0, r2
1000483c:	d067      	beq.n	1000490e <vQueueAddToRegistry+0x152>
1000483e:	6c9b      	ldr	r3, [r3, #72]	@ 0x48
10004840:	2b00      	cmp	r3, #0
10004842:	d058      	beq.n	100048f6 <vQueueAddToRegistry+0x13a>
10004844:	f85d 4b04 	ldr.w	r4, [sp], #4
10004848:	4770      	bx	lr
1000484a:	68da      	ldr	r2, [r3, #12]
1000484c:	4290      	cmp	r0, r2
1000484e:	d062      	beq.n	10004916 <vQueueAddToRegistry+0x15a>
10004850:	695a      	ldr	r2, [r3, #20]
10004852:	4290      	cmp	r0, r2
10004854:	d05d      	beq.n	10004912 <vQueueAddToRegistry+0x156>
10004856:	461a      	mov	r2, r3
10004858:	69dc      	ldr	r4, [r3, #28]
1000485a:	42a0      	cmp	r0, r4
1000485c:	d04d      	beq.n	100048fa <vQueueAddToRegistry+0x13e>
1000485e:	6a5c      	ldr	r4, [r3, #36]	@ 0x24
10004860:	42a0      	cmp	r0, r4
10004862:	d025      	beq.n	100048b0 <vQueueAddToRegistry+0xf4>
10004864:	6adc      	ldr	r4, [r3, #44]	@ 0x2c
10004866:	42a0      	cmp	r0, r4
10004868:	d049      	beq.n	100048fe <vQueueAddToRegistry+0x142>
1000486a:	6b5c      	ldr	r4, [r3, #52]	@ 0x34
1000486c:	42a0      	cmp	r0, r4
1000486e:	d048      	beq.n	10004902 <vQueueAddToRegistry+0x146>
10004870:	6bdc      	ldr	r4, [r3, #60]	@ 0x3c
10004872:	42a0      	cmp	r0, r4
10004874:	d047      	beq.n	10004906 <vQueueAddToRegistry+0x14a>
10004876:	6c5c      	ldr	r4, [r3, #68]	@ 0x44
10004878:	42a0      	cmp	r0, r4
1000487a:	d046      	beq.n	1000490a <vQueueAddToRegistry+0x14e>
1000487c:	6cdc      	ldr	r4, [r3, #76]	@ 0x4c
1000487e:	42a0      	cmp	r0, r4
10004880:	d045      	beq.n	1000490e <vQueueAddToRegistry+0x152>
10004882:	e9c2 1000 	strd	r1, r0, [r2]
10004886:	f85d 4b04 	ldr.w	r4, [sp], #4
1000488a:	4770      	bx	lr
1000488c:	695a      	ldr	r2, [r3, #20]
1000488e:	4290      	cmp	r0, r2
10004890:	d03f      	beq.n	10004912 <vQueueAddToRegistry+0x156>
10004892:	f103 0208 	add.w	r2, r3, #8
10004896:	e7df      	b.n	10004858 <vQueueAddToRegistry+0x9c>
10004898:	4770      	bx	lr
1000489a:	69da      	ldr	r2, [r3, #28]
1000489c:	4290      	cmp	r0, r2
1000489e:	d02c      	beq.n	100048fa <vQueueAddToRegistry+0x13e>
100048a0:	f103 0210 	add.w	r2, r3, #16
100048a4:	e7db      	b.n	1000485e <vQueueAddToRegistry+0xa2>
100048a6:	6a5a      	ldr	r2, [r3, #36]	@ 0x24
100048a8:	4290      	cmp	r0, r2
100048aa:	d001      	beq.n	100048b0 <vQueueAddToRegistry+0xf4>
100048ac:	4a1c      	ldr	r2, [pc, #112]	@ (10004920 <vQueueAddToRegistry+0x164>)
100048ae:	e7d9      	b.n	10004864 <vQueueAddToRegistry+0xa8>
100048b0:	2204      	movs	r2, #4
100048b2:	eb03 02c2 	add.w	r2, r3, r2, lsl #3
100048b6:	e7e4      	b.n	10004882 <vQueueAddToRegistry+0xc6>
100048b8:	6ada      	ldr	r2, [r3, #44]	@ 0x2c
100048ba:	4290      	cmp	r0, r2
100048bc:	d01f      	beq.n	100048fe <vQueueAddToRegistry+0x142>
100048be:	4a19      	ldr	r2, [pc, #100]	@ (10004924 <vQueueAddToRegistry+0x168>)
100048c0:	e7d3      	b.n	1000486a <vQueueAddToRegistry+0xae>
100048c2:	6b5a      	ldr	r2, [r3, #52]	@ 0x34
100048c4:	4290      	cmp	r0, r2
100048c6:	d01c      	beq.n	10004902 <vQueueAddToRegistry+0x146>
100048c8:	4a17      	ldr	r2, [pc, #92]	@ (10004928 <vQueueAddToRegistry+0x16c>)
100048ca:	e7d1      	b.n	10004870 <vQueueAddToRegistry+0xb4>
100048cc:	6bda      	ldr	r2, [r3, #60]	@ 0x3c
100048ce:	4290      	cmp	r0, r2
100048d0:	d019      	beq.n	10004906 <vQueueAddToRegistry+0x14a>
100048d2:	4a16      	ldr	r2, [pc, #88]	@ (1000492c <vQueueAddToRegistry+0x170>)
100048d4:	e7cf      	b.n	10004876 <vQueueAddToRegistry+0xba>
100048d6:	6c5a      	ldr	r2, [r3, #68]	@ 0x44
100048d8:	4290      	cmp	r0, r2
100048da:	d016      	beq.n	1000490a <vQueueAddToRegistry+0x14e>
100048dc:	4a14      	ldr	r2, [pc, #80]	@ (10004930 <vQueueAddToRegistry+0x174>)
100048de:	e7cd      	b.n	1000487c <vQueueAddToRegistry+0xc0>
100048e0:	2200      	movs	r2, #0
100048e2:	eb03 02c2 	add.w	r2, r3, r2, lsl #3
100048e6:	e9c2 1000 	strd	r1, r0, [r2]
100048ea:	4770      	bx	lr
100048ec:	6cda      	ldr	r2, [r3, #76]	@ 0x4c
100048ee:	4290      	cmp	r0, r2
100048f0:	d00d      	beq.n	1000490e <vQueueAddToRegistry+0x152>
100048f2:	4a10      	ldr	r2, [pc, #64]	@ (10004934 <vQueueAddToRegistry+0x178>)
100048f4:	e7c5      	b.n	10004882 <vQueueAddToRegistry+0xc6>
100048f6:	4a10      	ldr	r2, [pc, #64]	@ (10004938 <vQueueAddToRegistry+0x17c>)
100048f8:	e7c3      	b.n	10004882 <vQueueAddToRegistry+0xc6>
100048fa:	2203      	movs	r2, #3
100048fc:	e7d9      	b.n	100048b2 <vQueueAddToRegistry+0xf6>
100048fe:	2205      	movs	r2, #5
10004900:	e7d7      	b.n	100048b2 <vQueueAddToRegistry+0xf6>
10004902:	2206      	movs	r2, #6
10004904:	e7d5      	b.n	100048b2 <vQueueAddToRegistry+0xf6>
10004906:	2207      	movs	r2, #7
10004908:	e7d3      	b.n	100048b2 <vQueueAddToRegistry+0xf6>
1000490a:	2208      	movs	r2, #8
1000490c:	e7d1      	b.n	100048b2 <vQueueAddToRegistry+0xf6>
1000490e:	2209      	movs	r2, #9
10004910:	e7cf      	b.n	100048b2 <vQueueAddToRegistry+0xf6>
10004912:	2202      	movs	r2, #2
10004914:	e7cd      	b.n	100048b2 <vQueueAddToRegistry+0xf6>
10004916:	2201      	movs	r2, #1
10004918:	e7cb      	b.n	100048b2 <vQueueAddToRegistry+0xf6>
1000491a:	bf00      	nop
1000491c:	20001040 	.word	0x20001040
10004920:	20001058 	.word	0x20001058
10004924:	20001060 	.word	0x20001060
10004928:	20001068 	.word	0x20001068
1000492c:	20001070 	.word	0x20001070
10004930:	20001078 	.word	0x20001078
10004934:	20001080 	.word	0x20001080
10004938:	20001088 	.word	0x20001088

1000493c <vQueueWaitForMessageRestricted>:
1000493c:	b570      	push	{r4, r5, r6, lr}
1000493e:	4605      	mov	r5, r0
10004940:	460e      	mov	r6, r1
10004942:	4614      	mov	r4, r2
10004944:	f7ff fbf8 	bl	10004138 <vPortEnterCritical>
10004948:	f895 3044 	ldrb.w	r3, [r5, #68]	@ 0x44
1000494c:	2bff      	cmp	r3, #255	@ 0xff
1000494e:	bf04      	itt	eq
10004950:	2300      	moveq	r3, #0
10004952:	f885 3044 	strbeq.w	r3, [r5, #68]	@ 0x44
10004956:	f895 3045 	ldrb.w	r3, [r5, #69]	@ 0x45
1000495a:	2bff      	cmp	r3, #255	@ 0xff
1000495c:	bf04      	itt	eq
1000495e:	2300      	moveq	r3, #0
10004960:	f885 3045 	strbeq.w	r3, [r5, #69]	@ 0x45
10004964:	f7ff fbf6 	bl	10004154 <vPortExitCritical>
10004968:	6bab      	ldr	r3, [r5, #56]	@ 0x38
1000496a:	2b00      	cmp	r3, #0
1000496c:	d043      	beq.n	100049f6 <vQueueWaitForMessageRestricted+0xba>
1000496e:	f7ff fbe3 	bl	10004138 <vPortEnterCritical>
10004972:	f895 3045 	ldrb.w	r3, [r5, #69]	@ 0x45
10004976:	b25c      	sxtb	r4, r3
10004978:	2c00      	cmp	r4, #0
1000497a:	dd14      	ble.n	100049a6 <vQueueWaitForMessageRestricted+0x6a>
1000497c:	f105 0624 	add.w	r6, r5, #36	@ 0x24
10004980:	e003      	b.n	1000498a <vQueueWaitForMessageRestricted+0x4e>
10004982:	1e63      	subs	r3, r4, #1
10004984:	b2da      	uxtb	r2, r3
10004986:	b25c      	sxtb	r4, r3
10004988:	b16a      	cbz	r2, 100049a6 <vQueueWaitForMessageRestricted+0x6a>
1000498a:	6a6b      	ldr	r3, [r5, #36]	@ 0x24
1000498c:	b15b      	cbz	r3, 100049a6 <vQueueWaitForMessageRestricted+0x6a>
1000498e:	4630      	mov	r0, r6
10004990:	f7ff f8e4 	bl	10003b5c <xTaskRemoveFromEventList>
10004994:	2800      	cmp	r0, #0
10004996:	d0f4      	beq.n	10004982 <vQueueWaitForMessageRestricted+0x46>
10004998:	f7ff f984 	bl	10003ca4 <vTaskMissedYield>
1000499c:	1e63      	subs	r3, r4, #1
1000499e:	b2da      	uxtb	r2, r3
100049a0:	b25c      	sxtb	r4, r3
100049a2:	2a00      	cmp	r2, #0
100049a4:	d1f1      	bne.n	1000498a <vQueueWaitForMessageRestricted+0x4e>
100049a6:	23ff      	movs	r3, #255	@ 0xff
100049a8:	f885 3045 	strb.w	r3, [r5, #69]	@ 0x45
100049ac:	f7ff fbd2 	bl	10004154 <vPortExitCritical>
100049b0:	f7ff fbc2 	bl	10004138 <vPortEnterCritical>
100049b4:	f895 3044 	ldrb.w	r3, [r5, #68]	@ 0x44
100049b8:	b25c      	sxtb	r4, r3
100049ba:	2c00      	cmp	r4, #0
100049bc:	dd14      	ble.n	100049e8 <vQueueWaitForMessageRestricted+0xac>
100049be:	f105 0610 	add.w	r6, r5, #16
100049c2:	e003      	b.n	100049cc <vQueueWaitForMessageRestricted+0x90>
100049c4:	1e63      	subs	r3, r4, #1
100049c6:	b2da      	uxtb	r2, r3
100049c8:	b25c      	sxtb	r4, r3
100049ca:	b16a      	cbz	r2, 100049e8 <vQueueWaitForMessageRestricted+0xac>
100049cc:	692b      	ldr	r3, [r5, #16]
100049ce:	b15b      	cbz	r3, 100049e8 <vQueueWaitForMessageRestricted+0xac>
100049d0:	4630      	mov	r0, r6
100049d2:	f7ff f8c3 	bl	10003b5c <xTaskRemoveFromEventList>
100049d6:	2800      	cmp	r0, #0
100049d8:	d0f4      	beq.n	100049c4 <vQueueWaitForMessageRestricted+0x88>
100049da:	f7ff f963 	bl	10003ca4 <vTaskMissedYield>
100049de:	1e63      	subs	r3, r4, #1
100049e0:	b2da      	uxtb	r2, r3
100049e2:	b25c      	sxtb	r4, r3
100049e4:	2a00      	cmp	r2, #0
100049e6:	d1f1      	bne.n	100049cc <vQueueWaitForMessageRestricted+0x90>
100049e8:	23ff      	movs	r3, #255	@ 0xff
100049ea:	f885 3044 	strb.w	r3, [r5, #68]	@ 0x44
100049ee:	e8bd 4070 	ldmia.w	sp!, {r4, r5, r6, lr}
100049f2:	f7ff bbaf 	b.w	10004154 <vPortExitCritical>
100049f6:	4622      	mov	r2, r4
100049f8:	4631      	mov	r1, r6
100049fa:	f105 0024 	add.w	r0, r5, #36	@ 0x24
100049fe:	f7ff f847 	bl	10003a90 <vTaskPlaceOnEventListRestricted>
10004a02:	e7b4      	b.n	1000496e <vQueueWaitForMessageRestricted+0x32>

10004a04 <pwm_init_config>:
10004a04:	2800      	cmp	r0, #0
10004a06:	d03b      	beq.n	10004a80 <pwm_init_config+0x7c>
10004a08:	b538      	push	{r3, r4, r5, lr}
10004a0a:	4604      	mov	r4, r0
10004a0c:	6800      	ldr	r0, [r0, #0]
10004a0e:	281d      	cmp	r0, #29
10004a10:	d900      	bls.n	10004a14 <pwm_init_config+0x10>
10004a12:	bd38      	pop	{r3, r4, r5, pc}
10004a14:	2104      	movs	r1, #4
10004a16:	f7fb fcb5 	bl	10000384 <gpio_set_function>
10004a1a:	edd4 7a04 	vldr	s15, [r4, #16]
10004a1e:	eddf 6a19 	vldr	s13, [pc, #100]	@ 10004a84 <pwm_init_config+0x80>
10004a22:	eef8 7a67 	vcvt.f32.u32	s15, s15
10004a26:	eeb3 7a00 	vmov.f32	s14, #48	@ 0x41800000  16.0
10004a2a:	ee77 7aa6 	vadd.f32	s15, s15, s13
10004a2e:	ee67 7a87 	vmul.f32	s15, s15, s14
10004a32:	2000      	movs	r0, #0
10004a34:	eefc 7ae7 	vcvt.u32.f32	s15, s15
10004a38:	6821      	ldr	r1, [r4, #0]
10004a3a:	89a5      	ldrh	r5, [r4, #12]
10004a3c:	084a      	lsrs	r2, r1, #1
10004a3e:	291f      	cmp	r1, #31
10004a40:	bf8a      	itet	hi
10004a42:	f002 0203 	andhi.w	r2, r2, #3
10004a46:	f002 0207 	andls.w	r2, r2, #7
10004a4a:	3208      	addhi	r2, #8
10004a4c:	eb02 0382 	add.w	r3, r2, r2, lsl #2
10004a50:	009b      	lsls	r3, r3, #2
10004a52:	f001 0101 	and.w	r1, r1, #1
10004a56:	e9c4 2101 	strd	r2, r1, [r4, #4]
10004a5a:	f103 4280 	add.w	r2, r3, #1073741824	@ 0x40000000
10004a5e:	f502 2128 	add.w	r1, r2, #688128	@ 0xa8000
10004a62:	6008      	str	r0, [r1, #0]
10004a64:	6088      	str	r0, [r1, #8]
10004a66:	60c8      	str	r0, [r1, #12]
10004a68:	610d      	str	r5, [r1, #16]
10004a6a:	edc1 7a01 	vstr	s15, [r1, #4]
10004a6e:	6008      	str	r0, [r1, #0]
10004a70:	680b      	ldr	r3, [r1, #0]
10004a72:	f502 2229 	add.w	r2, r2, #692224	@ 0xa9000
10004a76:	43db      	mvns	r3, r3
10004a78:	f003 0301 	and.w	r3, r3, #1
10004a7c:	6013      	str	r3, [r2, #0]
10004a7e:	bd38      	pop	{r3, r4, r5, pc}
10004a80:	4770      	bx	lr
10004a82:	bf00      	nop
10004a84:	3d000000 	.word	0x3d000000

10004a88 <lcd_send_byte>:
10004a88:	e92d 47f0 	stmdb	sp!, {r4, r5, r6, r7, r8, r9, sl, lr}
10004a8c:	4684      	mov	ip, r0
10004a8e:	460c      	mov	r4, r1
10004a90:	2500      	movs	r5, #0
10004a92:	f02c 080f 	bic.w	r8, ip, #15
10004a96:	b264      	sxtb	r4, r4
10004a98:	ea44 0808 	orr.w	r8, r4, r8
10004a9c:	4f38      	ldr	r7, [pc, #224]	@ (10004b80 <lcd_send_byte+0xf8>)
10004a9e:	4e39      	ldr	r6, [pc, #228]	@ (10004b84 <lcd_send_byte+0xfc>)
10004aa0:	fa4f f888 	sxtb.w	r8, r8
10004aa4:	b084      	sub	sp, #16
10004aa6:	f048 0a08 	orr.w	sl, r8, #8
10004aaa:	7839      	ldrb	r1, [r7, #0]
10004aac:	f10d 020f 	add.w	r2, sp, #15
10004ab0:	2301      	movs	r3, #1
10004ab2:	6830      	ldr	r0, [r6, #0]
10004ab4:	fa5f fa8a 	uxtb.w	sl, sl
10004ab8:	9500      	str	r5, [sp, #0]
10004aba:	ea44 140c 	orr.w	r4, r4, ip, lsl #4
10004abe:	f88d a00f 	strb.w	sl, [sp, #15]
10004ac2:	f7fe fb5f 	bl	10003184 <i2c_write_blocking>
10004ac6:	f44f 7016 	mov.w	r0, #600	@ 0x258
10004aca:	2100      	movs	r1, #0
10004acc:	f7fc f870 	bl	10000bb0 <sleep_us>
10004ad0:	9500      	str	r5, [sp, #0]
10004ad2:	f10d 020f 	add.w	r2, sp, #15
10004ad6:	2301      	movs	r3, #1
10004ad8:	7839      	ldrb	r1, [r7, #0]
10004ada:	6830      	ldr	r0, [r6, #0]
10004adc:	f048 080c 	orr.w	r8, r8, #12
10004ae0:	f88d 800f 	strb.w	r8, [sp, #15]
10004ae4:	f7fe fb4e 	bl	10003184 <i2c_write_blocking>
10004ae8:	f44f 7016 	mov.w	r0, #600	@ 0x258
10004aec:	2100      	movs	r1, #0
10004aee:	f7fc f85f 	bl	10000bb0 <sleep_us>
10004af2:	9500      	str	r5, [sp, #0]
10004af4:	f10d 020f 	add.w	r2, sp, #15
10004af8:	2301      	movs	r3, #1
10004afa:	7839      	ldrb	r1, [r7, #0]
10004afc:	6830      	ldr	r0, [r6, #0]
10004afe:	b264      	sxtb	r4, r4
10004b00:	f88d a00f 	strb.w	sl, [sp, #15]
10004b04:	f7fe fb3e 	bl	10003184 <i2c_write_blocking>
10004b08:	f44f 7016 	mov.w	r0, #600	@ 0x258
10004b0c:	2100      	movs	r1, #0
10004b0e:	f7fc f84f 	bl	10000bb0 <sleep_us>
10004b12:	f044 0908 	orr.w	r9, r4, #8
10004b16:	9500      	str	r5, [sp, #0]
10004b18:	f10d 020f 	add.w	r2, sp, #15
10004b1c:	2301      	movs	r3, #1
10004b1e:	7839      	ldrb	r1, [r7, #0]
10004b20:	fa5f f989 	uxtb.w	r9, r9
10004b24:	6830      	ldr	r0, [r6, #0]
10004b26:	f88d 900f 	strb.w	r9, [sp, #15]
10004b2a:	f7fe fb2b 	bl	10003184 <i2c_write_blocking>
10004b2e:	f44f 7016 	mov.w	r0, #600	@ 0x258
10004b32:	2100      	movs	r1, #0
10004b34:	f7fc f83c 	bl	10000bb0 <sleep_us>
10004b38:	9500      	str	r5, [sp, #0]
10004b3a:	f10d 020f 	add.w	r2, sp, #15
10004b3e:	2301      	movs	r3, #1
10004b40:	7839      	ldrb	r1, [r7, #0]
10004b42:	6830      	ldr	r0, [r6, #0]
10004b44:	f044 040c 	orr.w	r4, r4, #12
10004b48:	f88d 400f 	strb.w	r4, [sp, #15]
10004b4c:	f7fe fb1a 	bl	10003184 <i2c_write_blocking>
10004b50:	f44f 7016 	mov.w	r0, #600	@ 0x258
10004b54:	2100      	movs	r1, #0
10004b56:	f7fc f82b 	bl	10000bb0 <sleep_us>
10004b5a:	7839      	ldrb	r1, [r7, #0]
10004b5c:	6830      	ldr	r0, [r6, #0]
10004b5e:	2301      	movs	r3, #1
10004b60:	f10d 020f 	add.w	r2, sp, #15
10004b64:	9500      	str	r5, [sp, #0]
10004b66:	f88d 900f 	strb.w	r9, [sp, #15]
10004b6a:	f7fe fb0b 	bl	10003184 <i2c_write_blocking>
10004b6e:	f44f 7016 	mov.w	r0, #600	@ 0x258
10004b72:	2100      	movs	r1, #0
10004b74:	b004      	add	sp, #16
10004b76:	e8bd 47f0 	ldmia.w	sp!, {r4, r5, r6, r7, r8, r9, sl, lr}
10004b7a:	f7fc b819 	b.w	10000bb0 <sleep_us>
10004b7e:	bf00      	nop
10004b80:	20001408 	.word	0x20001408
10004b84:	20001260 	.word	0x20001260

10004b88 <lcd_clear>:
10004b88:	2100      	movs	r1, #0
10004b8a:	2001      	movs	r0, #1
10004b8c:	f7ff bf7c 	b.w	10004a88 <lcd_send_byte>

10004b90 <lcd_set_cursor>:
10004b90:	b510      	push	{r4, lr}
10004b92:	4684      	mov	ip, r0
10004b94:	b084      	sub	sp, #16
10004b96:	468e      	mov	lr, r1
10004b98:	4b08      	ldr	r3, [pc, #32]	@ (10004bbc <lcd_set_cursor+0x2c>)
10004b9a:	ac04      	add	r4, sp, #16
10004b9c:	cb0f      	ldmia	r3, {r0, r1, r2, r3}
10004b9e:	e904 000f 	stmdb	r4, {r0, r1, r2, r3}
10004ba2:	2100      	movs	r1, #0
10004ba4:	eb04 0c8c 	add.w	ip, r4, ip, lsl #2
10004ba8:	f85c 0c10 	ldr.w	r0, [ip, #-16]
10004bac:	3080      	adds	r0, #128	@ 0x80
10004bae:	4470      	add	r0, lr
10004bb0:	b2c0      	uxtb	r0, r0
10004bb2:	b004      	add	sp, #16
10004bb4:	e8bd 4010 	ldmia.w	sp!, {r4, lr}
10004bb8:	f7ff bf66 	b.w	10004a88 <lcd_send_byte>
10004bbc:	10005a28 	.word	0x10005a28

10004bc0 <lcd_string>:
10004bc0:	b510      	push	{r4, lr}
10004bc2:	4604      	mov	r4, r0
10004bc4:	7800      	ldrb	r0, [r0, #0]
10004bc6:	b130      	cbz	r0, 10004bd6 <lcd_string+0x16>
10004bc8:	2101      	movs	r1, #1
10004bca:	f7ff ff5d 	bl	10004a88 <lcd_send_byte>
10004bce:	f814 0f01 	ldrb.w	r0, [r4, #1]!
10004bd2:	2800      	cmp	r0, #0
10004bd4:	d1f8      	bne.n	10004bc8 <lcd_string+0x8>
10004bd6:	bd10      	pop	{r4, pc}

10004bd8 <lcd_init>:
10004bd8:	b538      	push	{r3, r4, r5, lr}
10004bda:	460a      	mov	r2, r1
10004bdc:	4605      	mov	r5, r0
10004bde:	4b13      	ldr	r3, [pc, #76]	@ (10004c2c <lcd_init+0x54>)
10004be0:	4c13      	ldr	r4, [pc, #76]	@ (10004c30 <lcd_init+0x58>)
10004be2:	2100      	movs	r1, #0
10004be4:	2003      	movs	r0, #3
10004be6:	701a      	strb	r2, [r3, #0]
10004be8:	6025      	str	r5, [r4, #0]
10004bea:	f7ff ff4d 	bl	10004a88 <lcd_send_byte>
10004bee:	2100      	movs	r1, #0
10004bf0:	2003      	movs	r0, #3
10004bf2:	f7ff ff49 	bl	10004a88 <lcd_send_byte>
10004bf6:	2100      	movs	r1, #0
10004bf8:	2003      	movs	r0, #3
10004bfa:	f7ff ff45 	bl	10004a88 <lcd_send_byte>
10004bfe:	2100      	movs	r1, #0
10004c00:	2002      	movs	r0, #2
10004c02:	f7ff ff41 	bl	10004a88 <lcd_send_byte>
10004c06:	2100      	movs	r1, #0
10004c08:	2006      	movs	r0, #6
10004c0a:	f7ff ff3d 	bl	10004a88 <lcd_send_byte>
10004c0e:	2100      	movs	r1, #0
10004c10:	2028      	movs	r0, #40	@ 0x28
10004c12:	f7ff ff39 	bl	10004a88 <lcd_send_byte>
10004c16:	2100      	movs	r1, #0
10004c18:	200c      	movs	r0, #12
10004c1a:	f7ff ff35 	bl	10004a88 <lcd_send_byte>
10004c1e:	e8bd 4038 	ldmia.w	sp!, {r3, r4, r5, lr}
10004c22:	2100      	movs	r1, #0
10004c24:	2001      	movs	r0, #1
10004c26:	f7ff bf2f 	b.w	10004a88 <lcd_send_byte>
10004c2a:	bf00      	nop
10004c2c:	20001408 	.word	0x20001408
10004c30:	20001260 	.word	0x20001260

10004c34 <hc_sr04_init>:
10004c34:	4603      	mov	r3, r0
10004c36:	b570      	push	{r4, r5, r6, lr}
10004c38:	4608      	mov	r0, r1
10004c3a:	e9c3 1200 	strd	r1, r2, [r3]
10004c3e:	460c      	mov	r4, r1
10004c40:	4615      	mov	r5, r2
10004c42:	f7fb fbe1 	bl	10000408 <gpio_init>
10004c46:	f04f 0301 	mov.w	r3, #1
10004c4a:	ec43 4044 	gpioc_bit_oe_put r4, r3
10004c4e:	f04f 0600 	mov.w	r6, #0
10004c52:	ec46 4040 	gpioc_bit_out_put r4, r6
10004c56:	4628      	mov	r0, r5
10004c58:	f7fb fbd6 	bl	10000408 <gpio_init>
10004c5c:	ec46 5044 	gpioc_bit_oe_put r5, r6
10004c60:	bd70      	pop	{r4, r5, r6, pc}
10004c62:	bf00      	nop
10004c64:	0000      	movs	r0, r0
	...

10004c68 <hc_sr04_get_distance_cm>:
10004c68:	b570      	push	{r4, r5, r6, lr}
10004c6a:	6803      	ldr	r3, [r0, #0]
10004c6c:	2601      	movs	r6, #1
10004c6e:	4605      	mov	r5, r0
10004c70:	ec46 3040 	gpioc_bit_out_put r3, r6
10004c74:	200a      	movs	r0, #10
10004c76:	2100      	movs	r1, #0
10004c78:	f7fb ff9a 	bl	10000bb0 <sleep_us>
10004c7c:	f04f 0200 	mov.w	r2, #0
10004c80:	682b      	ldr	r3, [r5, #0]
10004c82:	ec42 3040 	gpioc_bit_out_put r3, r2
10004c86:	4c2c      	ldr	r4, [pc, #176]	@ (10004d38 <hc_sr04_get_distance_cm+0xd0>)
10004c88:	686b      	ldr	r3, [r5, #4]
10004c8a:	6aa1      	ldr	r1, [r4, #40]	@ 0x28
10004c8c:	f04f 4c50 	mov.w	ip, #3489660928	@ 0xd0000000
10004c90:	f501 41ea 	add.w	r1, r1, #29952	@ 0x7500
10004c94:	fa06 f303 	lsl.w	r3, r6, r3
10004c98:	3130      	adds	r1, #48	@ 0x30
10004c9a:	e002      	b.n	10004ca2 <hc_sr04_get_distance_cm+0x3a>
10004c9c:	6aa2      	ldr	r2, [r4, #40]	@ 0x28
10004c9e:	4291      	cmp	r1, r2
10004ca0:	d903      	bls.n	10004caa <hc_sr04_get_distance_cm+0x42>
10004ca2:	f8dc 2004 	ldr.w	r2, [ip, #4]
10004ca6:	421a      	tst	r2, r3
10004ca8:	d0f8      	beq.n	10004c9c <hc_sr04_get_distance_cm+0x34>
10004caa:	f04f 4450 	mov.w	r4, #3489660928	@ 0xd0000000
10004cae:	6862      	ldr	r2, [r4, #4]
10004cb0:	4213      	tst	r3, r2
10004cb2:	d038      	beq.n	10004d26 <hc_sr04_get_distance_cm+0xbe>
10004cb4:	4820      	ldr	r0, [pc, #128]	@ (10004d38 <hc_sr04_get_distance_cm+0xd0>)
10004cb6:	6a85      	ldr	r5, [r0, #40]	@ 0x28
10004cb8:	6a81      	ldr	r1, [r0, #40]	@ 0x28
10004cba:	f501 41ea 	add.w	r1, r1, #29952	@ 0x7500
10004cbe:	3130      	adds	r1, #48	@ 0x30
10004cc0:	e002      	b.n	10004cc8 <hc_sr04_get_distance_cm+0x60>
10004cc2:	6a82      	ldr	r2, [r0, #40]	@ 0x28
10004cc4:	4291      	cmp	r1, r2
10004cc6:	d902      	bls.n	10004cce <hc_sr04_get_distance_cm+0x66>
10004cc8:	6862      	ldr	r2, [r4, #4]
10004cca:	4213      	tst	r3, r2
10004ccc:	d1f9      	bne.n	10004cc2 <hc_sr04_get_distance_cm+0x5a>
10004cce:	f04f 4250 	mov.w	r2, #3489660928	@ 0xd0000000
10004cd2:	6852      	ldr	r2, [r2, #4]
10004cd4:	4213      	tst	r3, r2
10004cd6:	d126      	bne.n	10004d26 <hc_sr04_get_distance_cm+0xbe>
10004cd8:	4b17      	ldr	r3, [pc, #92]	@ (10004d38 <hc_sr04_get_distance_cm+0xd0>)
10004cda:	6a98      	ldr	r0, [r3, #40]	@ 0x28
10004cdc:	1b40      	subs	r0, r0, r5
10004cde:	f7fc fb3f 	bl	10001360 <__wrap___aeabi_ui2d>
10004ce2:	a313      	add	r3, pc, #76	@ (adr r3, 10004d30 <hc_sr04_get_distance_cm+0xc8>)
10004ce4:	e9d3 2300 	ldrd	r2, r3, [r3]
10004ce8:	f7fc faa6 	bl	10001238 <__wrap___aeabi_dmul>
10004cec:	2200      	movs	r2, #0
10004cee:	4b13      	ldr	r3, [pc, #76]	@ (10004d3c <hc_sr04_get_distance_cm+0xd4>)
10004cf0:	f7fc faa2 	bl	10001238 <__wrap___aeabi_dmul>
10004cf4:	f7fc fb14 	bl	10001320 <__wrap___aeabi_d2f>
10004cf8:	eef0 7a00 	vmov.f32	s15, #0	@ 0x40000000  2.0
10004cfc:	ee07 0a10 	vmov	s14, r0
10004d00:	eeb4 7ae7 	vcmpe.f32	s14, s15
10004d04:	eef1 fa10 	vmrs	APSR_nzcv, fpscr
10004d08:	db0d      	blt.n	10004d26 <hc_sr04_get_distance_cm+0xbe>
10004d0a:	ee06 0a90 	vmov	s13, r0
10004d0e:	ed9f 7a0c 	vldr	s14, [pc, #48]	@ 10004d40 <hc_sr04_get_distance_cm+0xd8>
10004d12:	eef4 6ac7 	vcmpe.f32	s13, s14
10004d16:	eeff 7a00 	vmov.f32	s15, #240	@ 0xbf800000 -1.0
10004d1a:	eef1 fa10 	vmrs	APSR_nzcv, fpscr
10004d1e:	bf88      	it	hi
10004d20:	ee17 0a90 	vmovhi	r0, s15
10004d24:	bd70      	pop	{r4, r5, r6, pc}
10004d26:	4807      	ldr	r0, [pc, #28]	@ (10004d44 <hc_sr04_get_distance_cm+0xdc>)
10004d28:	bd70      	pop	{r4, r5, r6, pc}
10004d2a:	bf00      	nop
10004d2c:	f3af 8000 	nop.w
10004d30:	04816f00 	.word	0x04816f00
10004d34:	3fa18fc5 	.word	0x3fa18fc5
10004d38:	400b0000 	.word	0x400b0000
10004d3c:	3fe00000 	.word	0x3fe00000
10004d40:	43c80000 	.word	0x43c80000
10004d44:	bf800000 	.word	0xbf800000

10004d48 <malloc>:
10004d48:	4b02      	ldr	r3, [pc, #8]	@ (10004d54 <malloc+0xc>)
10004d4a:	4601      	mov	r1, r0
10004d4c:	6818      	ldr	r0, [r3, #0]
10004d4e:	f000 b80b 	b.w	10004d68 <_malloc_r>
10004d52:	bf00      	nop
10004d54:	20000d70 	.word	0x20000d70

10004d58 <free>:
10004d58:	4b02      	ldr	r3, [pc, #8]	@ (10004d64 <free+0xc>)
10004d5a:	4601      	mov	r1, r0
10004d5c:	6818      	ldr	r0, [r3, #0]
10004d5e:	f000 bc43 	b.w	100055e8 <_free_r>
10004d62:	bf00      	nop
10004d64:	20000d70 	.word	0x20000d70

10004d68 <_malloc_r>:
10004d68:	f101 030b 	add.w	r3, r1, #11
10004d6c:	2b16      	cmp	r3, #22
10004d6e:	e92d 4ff0 	stmdb	sp!, {r4, r5, r6, r7, r8, r9, sl, fp, lr}
10004d72:	4607      	mov	r7, r0
10004d74:	b083      	sub	sp, #12
10004d76:	d823      	bhi.n	10004dc0 <_malloc_r+0x58>
10004d78:	2910      	cmp	r1, #16
10004d7a:	f200 80af 	bhi.w	10004edc <_malloc_r+0x174>
10004d7e:	f000 faaf 	bl	100052e0 <__malloc_lock>
10004d82:	2510      	movs	r5, #16
10004d84:	2318      	movs	r3, #24
10004d86:	2002      	movs	r0, #2
10004d88:	4eba      	ldr	r6, [pc, #744]	@ (10005074 <_malloc_r+0x30c>)
10004d8a:	4433      	add	r3, r6
10004d8c:	685c      	ldr	r4, [r3, #4]
10004d8e:	f1a3 0208 	sub.w	r2, r3, #8
10004d92:	4294      	cmp	r4, r2
10004d94:	f000 8156 	beq.w	10005044 <_malloc_r+0x2dc>
10004d98:	6863      	ldr	r3, [r4, #4]
10004d9a:	4638      	mov	r0, r7
10004d9c:	f023 0303 	bic.w	r3, r3, #3
10004da0:	e9d4 1202 	ldrd	r1, r2, [r4, #8]
10004da4:	4423      	add	r3, r4
10004da6:	60ca      	str	r2, [r1, #12]
10004da8:	6091      	str	r1, [r2, #8]
10004daa:	685a      	ldr	r2, [r3, #4]
10004dac:	3408      	adds	r4, #8
10004dae:	f042 0201 	orr.w	r2, r2, #1
10004db2:	605a      	str	r2, [r3, #4]
10004db4:	f000 fa9a 	bl	100052ec <__malloc_unlock>
10004db8:	4620      	mov	r0, r4
10004dba:	b003      	add	sp, #12
10004dbc:	e8bd 8ff0 	ldmia.w	sp!, {r4, r5, r6, r7, r8, r9, sl, fp, pc}
10004dc0:	2b00      	cmp	r3, #0
10004dc2:	f023 0507 	bic.w	r5, r3, #7
10004dc6:	f2c0 8089 	blt.w	10004edc <_malloc_r+0x174>
10004dca:	42a9      	cmp	r1, r5
10004dcc:	f200 8086 	bhi.w	10004edc <_malloc_r+0x174>
10004dd0:	f000 fa86 	bl	100052e0 <__malloc_lock>
10004dd4:	f5b5 7ffc 	cmp.w	r5, #504	@ 0x1f8
10004dd8:	f0c0 827b 	bcc.w	100052d2 <_malloc_r+0x56a>
10004ddc:	0a6b      	lsrs	r3, r5, #9
10004dde:	f000 8084 	beq.w	10004eea <_malloc_r+0x182>
10004de2:	2b04      	cmp	r3, #4
10004de4:	f200 8162 	bhi.w	100050ac <_malloc_r+0x344>
10004de8:	09ab      	lsrs	r3, r5, #6
10004dea:	f103 0039 	add.w	r0, r3, #57	@ 0x39
10004dee:	f103 0e38 	add.w	lr, r3, #56	@ 0x38
10004df2:	00c3      	lsls	r3, r0, #3
10004df4:	4e9f      	ldr	r6, [pc, #636]	@ (10005074 <_malloc_r+0x30c>)
10004df6:	4433      	add	r3, r6
10004df8:	f1a3 0c08 	sub.w	ip, r3, #8
10004dfc:	685c      	ldr	r4, [r3, #4]
10004dfe:	45a4      	cmp	ip, r4
10004e00:	d107      	bne.n	10004e12 <_malloc_r+0xaa>
10004e02:	e00d      	b.n	10004e20 <_malloc_r+0xb8>
10004e04:	2a00      	cmp	r2, #0
10004e06:	68e1      	ldr	r1, [r4, #12]
10004e08:	f280 8116 	bge.w	10005038 <_malloc_r+0x2d0>
10004e0c:	458c      	cmp	ip, r1
10004e0e:	460c      	mov	r4, r1
10004e10:	d006      	beq.n	10004e20 <_malloc_r+0xb8>
10004e12:	6863      	ldr	r3, [r4, #4]
10004e14:	f023 0303 	bic.w	r3, r3, #3
10004e18:	1b5a      	subs	r2, r3, r5
10004e1a:	2a0f      	cmp	r2, #15
10004e1c:	ddf2      	ble.n	10004e04 <_malloc_r+0x9c>
10004e1e:	4670      	mov	r0, lr
10004e20:	f8df 8268 	ldr.w	r8, [pc, #616]	@ 1000508c <_malloc_r+0x324>
10004e24:	6934      	ldr	r4, [r6, #16]
10004e26:	4544      	cmp	r4, r8
10004e28:	f000 80f2 	beq.w	10005010 <_malloc_r+0x2a8>
10004e2c:	6863      	ldr	r3, [r4, #4]
10004e2e:	f023 0c03 	bic.w	ip, r3, #3
10004e32:	ebac 0305 	sub.w	r3, ip, r5
10004e36:	2b0f      	cmp	r3, #15
10004e38:	f300 8174 	bgt.w	10005124 <_malloc_r+0x3bc>
10004e3c:	2b00      	cmp	r3, #0
10004e3e:	e9c6 8804 	strd	r8, r8, [r6, #16]
10004e42:	f280 8163 	bge.w	1000510c <_malloc_r+0x3a4>
10004e46:	f5bc 7f00 	cmp.w	ip, #512	@ 0x200
10004e4a:	f8d6 e004 	ldr.w	lr, [r6, #4]
10004e4e:	f080 80ff 	bcs.w	10005050 <_malloc_r+0x2e8>
10004e52:	ea4f 03dc 	mov.w	r3, ip, lsr #3
10004e56:	2201      	movs	r2, #1
10004e58:	ea4f 1c5c 	mov.w	ip, ip, lsr #5
10004e5c:	3301      	adds	r3, #1
10004e5e:	fa02 f20c 	lsl.w	r2, r2, ip
10004e62:	f856 1033 	ldr.w	r1, [r6, r3, lsl #3]
10004e66:	ea4e 0e02 	orr.w	lr, lr, r2
10004e6a:	eb06 02c3 	add.w	r2, r6, r3, lsl #3
10004e6e:	3a08      	subs	r2, #8
10004e70:	f8c6 e004 	str.w	lr, [r6, #4]
10004e74:	e9c4 1202 	strd	r1, r2, [r4, #8]
10004e78:	f846 4033 	str.w	r4, [r6, r3, lsl #3]
10004e7c:	60cc      	str	r4, [r1, #12]
10004e7e:	1083      	asrs	r3, r0, #2
10004e80:	f04f 0c01 	mov.w	ip, #1
10004e84:	fa0c fc03 	lsl.w	ip, ip, r3
10004e88:	45f4      	cmp	ip, lr
10004e8a:	d834      	bhi.n	10004ef6 <_malloc_r+0x18e>
10004e8c:	ea1c 0f0e 	tst.w	ip, lr
10004e90:	d107      	bne.n	10004ea2 <_malloc_r+0x13a>
10004e92:	f020 0003 	bic.w	r0, r0, #3
10004e96:	ea4f 0c4c 	mov.w	ip, ip, lsl #1
10004e9a:	3004      	adds	r0, #4
10004e9c:	ea1c 0f0e 	tst.w	ip, lr
10004ea0:	d0f9      	beq.n	10004e96 <_malloc_r+0x12e>
10004ea2:	eb06 0ac0 	add.w	sl, r6, r0, lsl #3
10004ea6:	4681      	mov	r9, r0
10004ea8:	46d6      	mov	lr, sl
10004eaa:	f8de 300c 	ldr.w	r3, [lr, #12]
10004eae:	e00b      	b.n	10004ec8 <_malloc_r+0x160>
10004eb0:	685a      	ldr	r2, [r3, #4]
10004eb2:	461c      	mov	r4, r3
10004eb4:	68db      	ldr	r3, [r3, #12]
10004eb6:	f022 0203 	bic.w	r2, r2, #3
10004eba:	1b51      	subs	r1, r2, r5
10004ebc:	290f      	cmp	r1, #15
10004ebe:	f300 8101 	bgt.w	100050c4 <_malloc_r+0x35c>
10004ec2:	2900      	cmp	r1, #0
10004ec4:	f280 8115 	bge.w	100050f2 <_malloc_r+0x38a>
10004ec8:	459e      	cmp	lr, r3
10004eca:	d1f1      	bne.n	10004eb0 <_malloc_r+0x148>
10004ecc:	f109 0901 	add.w	r9, r9, #1
10004ed0:	f10e 0e08 	add.w	lr, lr, #8
10004ed4:	f019 0f03 	tst.w	r9, #3
10004ed8:	d1e7      	bne.n	10004eaa <_malloc_r+0x142>
10004eda:	e158      	b.n	1000518e <_malloc_r+0x426>
10004edc:	230c      	movs	r3, #12
10004ede:	603b      	str	r3, [r7, #0]
10004ee0:	2400      	movs	r4, #0
10004ee2:	4620      	mov	r0, r4
10004ee4:	b003      	add	sp, #12
10004ee6:	e8bd 8ff0 	ldmia.w	sp!, {r4, r5, r6, r7, r8, r9, sl, fp, pc}
10004eea:	f44f 7300 	mov.w	r3, #512	@ 0x200
10004eee:	2040      	movs	r0, #64	@ 0x40
10004ef0:	f04f 0e3f 	mov.w	lr, #63	@ 0x3f
10004ef4:	e77e      	b.n	10004df4 <_malloc_r+0x8c>
10004ef6:	68b4      	ldr	r4, [r6, #8]
10004ef8:	6863      	ldr	r3, [r4, #4]
10004efa:	f023 0903 	bic.w	r9, r3, #3
10004efe:	45a9      	cmp	r9, r5
10004f00:	eba9 0305 	sub.w	r3, r9, r5
10004f04:	d302      	bcc.n	10004f0c <_malloc_r+0x1a4>
10004f06:	2b0f      	cmp	r3, #15
10004f08:	f300 8085 	bgt.w	10005016 <_malloc_r+0x2ae>
10004f0c:	4b5a      	ldr	r3, [pc, #360]	@ (10005078 <_malloc_r+0x310>)
10004f0e:	2008      	movs	r0, #8
10004f10:	681b      	ldr	r3, [r3, #0]
10004f12:	f103 0810 	add.w	r8, r3, #16
10004f16:	eb04 0309 	add.w	r3, r4, r9
10004f1a:	9300      	str	r3, [sp, #0]
10004f1c:	f000 fa56 	bl	100053cc <sysconf>
10004f20:	4a56      	ldr	r2, [pc, #344]	@ (1000507c <_malloc_r+0x314>)
10004f22:	44a8      	add	r8, r5
10004f24:	4683      	mov	fp, r0
10004f26:	6813      	ldr	r3, [r2, #0]
10004f28:	3301      	adds	r3, #1
10004f2a:	d005      	beq.n	10004f38 <_malloc_r+0x1d0>
10004f2c:	f108 38ff 	add.w	r8, r8, #4294967295
10004f30:	4243      	negs	r3, r0
10004f32:	4480      	add	r8, r0
10004f34:	ea03 0808 	and.w	r8, r3, r8
10004f38:	4641      	mov	r1, r8
10004f3a:	4638      	mov	r0, r7
10004f3c:	f000 fa2a 	bl	10005394 <_sbrk_r>
10004f40:	f1b0 3fff 	cmp.w	r0, #4294967295
10004f44:	4682      	mov	sl, r0
10004f46:	4a4d      	ldr	r2, [pc, #308]	@ (1000507c <_malloc_r+0x314>)
10004f48:	f000 8107 	beq.w	1000515a <_malloc_r+0x3f2>
10004f4c:	eb04 0309 	add.w	r3, r4, r9
10004f50:	4283      	cmp	r3, r0
10004f52:	f200 8100 	bhi.w	10005156 <_malloc_r+0x3ee>
10004f56:	4b4a      	ldr	r3, [pc, #296]	@ (10005080 <_malloc_r+0x318>)
10004f58:	f10b 3cff 	add.w	ip, fp, #4294967295
10004f5c:	6818      	ldr	r0, [r3, #0]
10004f5e:	4440      	add	r0, r8
10004f60:	6018      	str	r0, [r3, #0]
10004f62:	f000 8164 	beq.w	1000522e <_malloc_r+0x4c6>
10004f66:	6811      	ldr	r1, [r2, #0]
10004f68:	3101      	adds	r1, #1
10004f6a:	f000 816c 	beq.w	10005246 <_malloc_r+0x4de>
10004f6e:	eb04 0209 	add.w	r2, r4, r9
10004f72:	ebaa 0202 	sub.w	r2, sl, r2
10004f76:	4402      	add	r2, r0
10004f78:	601a      	str	r2, [r3, #0]
10004f7a:	f01a 0207 	ands.w	r2, sl, #7
10004f7e:	e9cd 2300 	strd	r2, r3, [sp]
10004f82:	f000 8127 	beq.w	100051d4 <_malloc_r+0x46c>
10004f86:	f1c2 0208 	rsb	r2, r2, #8
10004f8a:	4638      	mov	r0, r7
10004f8c:	4492      	add	sl, r2
10004f8e:	445a      	add	r2, fp
10004f90:	44d0      	add	r8, sl
10004f92:	ea08 010c 	and.w	r1, r8, ip
10004f96:	1a52      	subs	r2, r2, r1
10004f98:	ea02 0b0c 	and.w	fp, r2, ip
10004f9c:	4659      	mov	r1, fp
10004f9e:	f000 f9f9 	bl	10005394 <_sbrk_r>
10004fa2:	1c42      	adds	r2, r0, #1
10004fa4:	9b01      	ldr	r3, [sp, #4]
10004fa6:	f000 816a 	beq.w	1000527e <_malloc_r+0x516>
10004faa:	eba0 000a 	sub.w	r0, r0, sl
10004fae:	eb00 080b 	add.w	r8, r0, fp
10004fb2:	6818      	ldr	r0, [r3, #0]
10004fb4:	f048 0201 	orr.w	r2, r8, #1
10004fb8:	42b4      	cmp	r4, r6
10004fba:	f8c6 a008 	str.w	sl, [r6, #8]
10004fbe:	4458      	add	r0, fp
10004fc0:	f8ca 2004 	str.w	r2, [sl, #4]
10004fc4:	6018      	str	r0, [r3, #0]
10004fc6:	d017      	beq.n	10004ff8 <_malloc_r+0x290>
10004fc8:	f1b9 0f0f 	cmp.w	r9, #15
10004fcc:	f240 813e 	bls.w	1000524c <_malloc_r+0x4e4>
10004fd0:	6861      	ldr	r1, [r4, #4]
10004fd2:	f1a9 020c 	sub.w	r2, r9, #12
10004fd6:	f04f 0c05 	mov.w	ip, #5
10004fda:	f022 0207 	bic.w	r2, r2, #7
10004fde:	f001 0101 	and.w	r1, r1, #1
10004fe2:	4311      	orrs	r1, r2
10004fe4:	2a0f      	cmp	r2, #15
10004fe6:	6061      	str	r1, [r4, #4]
10004fe8:	eb04 0102 	add.w	r1, r4, r2
10004fec:	e9c1 cc01 	strd	ip, ip, [r1, #4]
10004ff0:	f200 814d 	bhi.w	1000528e <_malloc_r+0x526>
10004ff4:	f8da 2004 	ldr.w	r2, [sl, #4]
10004ff8:	4b22      	ldr	r3, [pc, #136]	@ (10005084 <_malloc_r+0x31c>)
10004ffa:	4654      	mov	r4, sl
10004ffc:	6819      	ldr	r1, [r3, #0]
10004ffe:	4281      	cmp	r1, r0
10005000:	bf38      	it	cc
10005002:	6018      	strcc	r0, [r3, #0]
10005004:	4b20      	ldr	r3, [pc, #128]	@ (10005088 <_malloc_r+0x320>)
10005006:	6819      	ldr	r1, [r3, #0]
10005008:	4281      	cmp	r1, r0
1000500a:	bf38      	it	cc
1000500c:	6018      	strcc	r0, [r3, #0]
1000500e:	e0a6      	b.n	1000515e <_malloc_r+0x3f6>
10005010:	f8d6 e004 	ldr.w	lr, [r6, #4]
10005014:	e733      	b.n	10004e7e <_malloc_r+0x116>
10005016:	1962      	adds	r2, r4, r5
10005018:	f045 0501 	orr.w	r5, r5, #1
1000501c:	f043 0301 	orr.w	r3, r3, #1
10005020:	3408      	adds	r4, #8
10005022:	f844 5c04 	str.w	r5, [r4, #-4]
10005026:	4638      	mov	r0, r7
10005028:	60b2      	str	r2, [r6, #8]
1000502a:	6053      	str	r3, [r2, #4]
1000502c:	f000 f95e 	bl	100052ec <__malloc_unlock>
10005030:	4620      	mov	r0, r4
10005032:	b003      	add	sp, #12
10005034:	e8bd 8ff0 	ldmia.w	sp!, {r4, r5, r6, r7, r8, r9, sl, fp, pc}
10005038:	68a2      	ldr	r2, [r4, #8]
1000503a:	4423      	add	r3, r4
1000503c:	4638      	mov	r0, r7
1000503e:	60d1      	str	r1, [r2, #12]
10005040:	608a      	str	r2, [r1, #8]
10005042:	e6b2      	b.n	10004daa <_malloc_r+0x42>
10005044:	68dc      	ldr	r4, [r3, #12]
10005046:	42a3      	cmp	r3, r4
10005048:	f47f aea6 	bne.w	10004d98 <_malloc_r+0x30>
1000504c:	3002      	adds	r0, #2
1000504e:	e6e7      	b.n	10004e20 <_malloc_r+0xb8>
10005050:	f5bc 6f20 	cmp.w	ip, #2560	@ 0xa00
10005054:	ea4f 225c 	mov.w	r2, ip, lsr #9
10005058:	d376      	bcc.n	10005148 <_malloc_r+0x3e0>
1000505a:	2a14      	cmp	r2, #20
1000505c:	f200 80cd 	bhi.w	100051fa <_malloc_r+0x492>
10005060:	f102 035c 	add.w	r3, r2, #92	@ 0x5c
10005064:	325b      	adds	r2, #91	@ 0x5b
10005066:	00db      	lsls	r3, r3, #3
10005068:	18f1      	adds	r1, r6, r3
1000506a:	58f3      	ldr	r3, [r6, r3]
1000506c:	3908      	subs	r1, #8
1000506e:	4299      	cmp	r1, r3
10005070:	d111      	bne.n	10005096 <_malloc_r+0x32e>
10005072:	e0a5      	b.n	100051c0 <_malloc_r+0x458>
10005074:	20000968 	.word	0x20000968
10005078:	200010c4 	.word	0x200010c4
1000507c:	20000960 	.word	0x20000960
10005080:	20001094 	.word	0x20001094
10005084:	200010bc 	.word	0x200010bc
10005088:	200010c0 	.word	0x200010c0
1000508c:	20000970 	.word	0x20000970
10005090:	689b      	ldr	r3, [r3, #8]
10005092:	4299      	cmp	r1, r3
10005094:	d004      	beq.n	100050a0 <_malloc_r+0x338>
10005096:	685a      	ldr	r2, [r3, #4]
10005098:	f022 0203 	bic.w	r2, r2, #3
1000509c:	4562      	cmp	r2, ip
1000509e:	d8f7      	bhi.n	10005090 <_malloc_r+0x328>
100050a0:	68d9      	ldr	r1, [r3, #12]
100050a2:	e9c4 3102 	strd	r3, r1, [r4, #8]
100050a6:	608c      	str	r4, [r1, #8]
100050a8:	60dc      	str	r4, [r3, #12]
100050aa:	e6e8      	b.n	10004e7e <_malloc_r+0x116>
100050ac:	2b14      	cmp	r3, #20
100050ae:	d963      	bls.n	10005178 <_malloc_r+0x410>
100050b0:	2b54      	cmp	r3, #84	@ 0x54
100050b2:	f200 80ab 	bhi.w	1000520c <_malloc_r+0x4a4>
100050b6:	0b2b      	lsrs	r3, r5, #12
100050b8:	f103 006f 	add.w	r0, r3, #111	@ 0x6f
100050bc:	f103 0e6e 	add.w	lr, r3, #110	@ 0x6e
100050c0:	00c3      	lsls	r3, r0, #3
100050c2:	e697      	b.n	10004df4 <_malloc_r+0x8c>
100050c4:	f8d4 c008 	ldr.w	ip, [r4, #8]
100050c8:	4638      	mov	r0, r7
100050ca:	1967      	adds	r7, r4, r5
100050cc:	f045 0501 	orr.w	r5, r5, #1
100050d0:	6065      	str	r5, [r4, #4]
100050d2:	f8cc 300c 	str.w	r3, [ip, #12]
100050d6:	f8c3 c008 	str.w	ip, [r3, #8]
100050da:	f041 0301 	orr.w	r3, r1, #1
100050de:	e9c6 7704 	strd	r7, r7, [r6, #16]
100050e2:	e9c7 8802 	strd	r8, r8, [r7, #8]
100050e6:	607b      	str	r3, [r7, #4]
100050e8:	50a1      	str	r1, [r4, r2]
100050ea:	3408      	adds	r4, #8
100050ec:	f000 f8fe 	bl	100052ec <__malloc_unlock>
100050f0:	e6f7      	b.n	10004ee2 <_malloc_r+0x17a>
100050f2:	4422      	add	r2, r4
100050f4:	4638      	mov	r0, r7
100050f6:	6851      	ldr	r1, [r2, #4]
100050f8:	f041 0101 	orr.w	r1, r1, #1
100050fc:	6051      	str	r1, [r2, #4]
100050fe:	f854 2f08 	ldr.w	r2, [r4, #8]!
10005102:	60d3      	str	r3, [r2, #12]
10005104:	609a      	str	r2, [r3, #8]
10005106:	f000 f8f1 	bl	100052ec <__malloc_unlock>
1000510a:	e6ea      	b.n	10004ee2 <_malloc_r+0x17a>
1000510c:	44a4      	add	ip, r4
1000510e:	4638      	mov	r0, r7
10005110:	3408      	adds	r4, #8
10005112:	f8dc 3004 	ldr.w	r3, [ip, #4]
10005116:	f043 0301 	orr.w	r3, r3, #1
1000511a:	f8cc 3004 	str.w	r3, [ip, #4]
1000511e:	f000 f8e5 	bl	100052ec <__malloc_unlock>
10005122:	e6de      	b.n	10004ee2 <_malloc_r+0x17a>
10005124:	1962      	adds	r2, r4, r5
10005126:	f043 0101 	orr.w	r1, r3, #1
1000512a:	f045 0501 	orr.w	r5, r5, #1
1000512e:	4638      	mov	r0, r7
10005130:	6065      	str	r5, [r4, #4]
10005132:	e9c6 2204 	strd	r2, r2, [r6, #16]
10005136:	e9c2 8802 	strd	r8, r8, [r2, #8]
1000513a:	6051      	str	r1, [r2, #4]
1000513c:	f844 300c 	str.w	r3, [r4, ip]
10005140:	3408      	adds	r4, #8
10005142:	f000 f8d3 	bl	100052ec <__malloc_unlock>
10005146:	e6cc      	b.n	10004ee2 <_malloc_r+0x17a>
10005148:	ea4f 129c 	mov.w	r2, ip, lsr #6
1000514c:	f102 0339 	add.w	r3, r2, #57	@ 0x39
10005150:	3238      	adds	r2, #56	@ 0x38
10005152:	00db      	lsls	r3, r3, #3
10005154:	e788      	b.n	10005068 <_malloc_r+0x300>
10005156:	42b4      	cmp	r4, r6
10005158:	d062      	beq.n	10005220 <_malloc_r+0x4b8>
1000515a:	68b4      	ldr	r4, [r6, #8]
1000515c:	6862      	ldr	r2, [r4, #4]
1000515e:	f022 0803 	bic.w	r8, r2, #3
10005162:	45a8      	cmp	r8, r5
10005164:	eba8 0305 	sub.w	r3, r8, r5
10005168:	d302      	bcc.n	10005170 <_malloc_r+0x408>
1000516a:	2b0f      	cmp	r3, #15
1000516c:	f73f af53 	bgt.w	10005016 <_malloc_r+0x2ae>
10005170:	4638      	mov	r0, r7
10005172:	f000 f8bb 	bl	100052ec <__malloc_unlock>
10005176:	e6b3      	b.n	10004ee0 <_malloc_r+0x178>
10005178:	f103 005c 	add.w	r0, r3, #92	@ 0x5c
1000517c:	f103 0e5b 	add.w	lr, r3, #91	@ 0x5b
10005180:	00c3      	lsls	r3, r0, #3
10005182:	e637      	b.n	10004df4 <_malloc_r+0x8c>
10005184:	f85a 3908 	ldr.w	r3, [sl], #-8
10005188:	4553      	cmp	r3, sl
1000518a:	f040 80a0 	bne.w	100052ce <_malloc_r+0x566>
1000518e:	f010 0f03 	tst.w	r0, #3
10005192:	f100 30ff 	add.w	r0, r0, #4294967295
10005196:	d1f5      	bne.n	10005184 <_malloc_r+0x41c>
10005198:	6873      	ldr	r3, [r6, #4]
1000519a:	ea23 030c 	bic.w	r3, r3, ip
1000519e:	6073      	str	r3, [r6, #4]
100051a0:	ea4f 0c4c 	mov.w	ip, ip, lsl #1
100051a4:	f10c 32ff 	add.w	r2, ip, #4294967295
100051a8:	429a      	cmp	r2, r3
100051aa:	d304      	bcc.n	100051b6 <_malloc_r+0x44e>
100051ac:	e6a3      	b.n	10004ef6 <_malloc_r+0x18e>
100051ae:	ea4f 0c4c 	mov.w	ip, ip, lsl #1
100051b2:	f109 0904 	add.w	r9, r9, #4
100051b6:	ea1c 0f03 	tst.w	ip, r3
100051ba:	d0f8      	beq.n	100051ae <_malloc_r+0x446>
100051bc:	4648      	mov	r0, r9
100051be:	e670      	b.n	10004ea2 <_malloc_r+0x13a>
100051c0:	1092      	asrs	r2, r2, #2
100051c2:	f04f 0c01 	mov.w	ip, #1
100051c6:	fa0c f202 	lsl.w	r2, ip, r2
100051ca:	ea4e 0e02 	orr.w	lr, lr, r2
100051ce:	f8c6 e004 	str.w	lr, [r6, #4]
100051d2:	e766      	b.n	100050a2 <_malloc_r+0x33a>
100051d4:	eb0a 0208 	add.w	r2, sl, r8
100051d8:	4638      	mov	r0, r7
100051da:	ea02 020c 	and.w	r2, r2, ip
100051de:	ebab 0b02 	sub.w	fp, fp, r2
100051e2:	ea0b 0b0c 	and.w	fp, fp, ip
100051e6:	4659      	mov	r1, fp
100051e8:	f000 f8d4 	bl	10005394 <_sbrk_r>
100051ec:	1c43      	adds	r3, r0, #1
100051ee:	9b01      	ldr	r3, [sp, #4]
100051f0:	f47f aedb 	bne.w	10004faa <_malloc_r+0x242>
100051f4:	f8dd b000 	ldr.w	fp, [sp]
100051f8:	e6db      	b.n	10004fb2 <_malloc_r+0x24a>
100051fa:	2a54      	cmp	r2, #84	@ 0x54
100051fc:	d82a      	bhi.n	10005254 <_malloc_r+0x4ec>
100051fe:	ea4f 321c 	mov.w	r2, ip, lsr #12
10005202:	f102 036f 	add.w	r3, r2, #111	@ 0x6f
10005206:	326e      	adds	r2, #110	@ 0x6e
10005208:	00db      	lsls	r3, r3, #3
1000520a:	e72d      	b.n	10005068 <_malloc_r+0x300>
1000520c:	f5b3 7faa 	cmp.w	r3, #340	@ 0x154
10005210:	d82a      	bhi.n	10005268 <_malloc_r+0x500>
10005212:	0beb      	lsrs	r3, r5, #15
10005214:	f103 0078 	add.w	r0, r3, #120	@ 0x78
10005218:	f103 0e77 	add.w	lr, r3, #119	@ 0x77
1000521c:	00c3      	lsls	r3, r0, #3
1000521e:	e5e9      	b.n	10004df4 <_malloc_r+0x8c>
10005220:	4b2e      	ldr	r3, [pc, #184]	@ (100052dc <_malloc_r+0x574>)
10005222:	f10b 3cff 	add.w	ip, fp, #4294967295
10005226:	6818      	ldr	r0, [r3, #0]
10005228:	4440      	add	r0, r8
1000522a:	6018      	str	r0, [r3, #0]
1000522c:	e69b      	b.n	10004f66 <_malloc_r+0x1fe>
1000522e:	ea1a 0f0c 	tst.w	sl, ip
10005232:	f47f ae98 	bne.w	10004f66 <_malloc_r+0x1fe>
10005236:	44c8      	add	r8, r9
10005238:	f8d6 a008 	ldr.w	sl, [r6, #8]
1000523c:	f048 0201 	orr.w	r2, r8, #1
10005240:	f8ca 2004 	str.w	r2, [sl, #4]
10005244:	e6d8      	b.n	10004ff8 <_malloc_r+0x290>
10005246:	f8c2 a000 	str.w	sl, [r2]
1000524a:	e696      	b.n	10004f7a <_malloc_r+0x212>
1000524c:	2301      	movs	r3, #1
1000524e:	f8ca 3004 	str.w	r3, [sl, #4]
10005252:	e78d      	b.n	10005170 <_malloc_r+0x408>
10005254:	f5b2 7faa 	cmp.w	r2, #340	@ 0x154
10005258:	d824      	bhi.n	100052a4 <_malloc_r+0x53c>
1000525a:	ea4f 32dc 	mov.w	r2, ip, lsr #15
1000525e:	f102 0378 	add.w	r3, r2, #120	@ 0x78
10005262:	3277      	adds	r2, #119	@ 0x77
10005264:	00db      	lsls	r3, r3, #3
10005266:	e6ff      	b.n	10005068 <_malloc_r+0x300>
10005268:	f240 5254 	movw	r2, #1364	@ 0x554
1000526c:	4293      	cmp	r3, r2
1000526e:	d824      	bhi.n	100052ba <_malloc_r+0x552>
10005270:	0cab      	lsrs	r3, r5, #18
10005272:	f103 007d 	add.w	r0, r3, #125	@ 0x7d
10005276:	f103 0e7c 	add.w	lr, r3, #124	@ 0x7c
1000527a:	00c3      	lsls	r3, r0, #3
1000527c:	e5ba      	b.n	10004df4 <_malloc_r+0x8c>
1000527e:	9a00      	ldr	r2, [sp, #0]
10005280:	f04f 0b00 	mov.w	fp, #0
10005284:	3a08      	subs	r2, #8
10005286:	4490      	add	r8, r2
10005288:	eba8 080a 	sub.w	r8, r8, sl
1000528c:	e691      	b.n	10004fb2 <_malloc_r+0x24a>
1000528e:	4638      	mov	r0, r7
10005290:	f104 0108 	add.w	r1, r4, #8
10005294:	9300      	str	r3, [sp, #0]
10005296:	f000 f9a7 	bl	100055e8 <_free_r>
1000529a:	9b00      	ldr	r3, [sp, #0]
1000529c:	f8d6 a008 	ldr.w	sl, [r6, #8]
100052a0:	6818      	ldr	r0, [r3, #0]
100052a2:	e6a7      	b.n	10004ff4 <_malloc_r+0x28c>
100052a4:	f240 5354 	movw	r3, #1364	@ 0x554
100052a8:	429a      	cmp	r2, r3
100052aa:	d80c      	bhi.n	100052c6 <_malloc_r+0x55e>
100052ac:	ea4f 429c 	mov.w	r2, ip, lsr #18
100052b0:	f102 037d 	add.w	r3, r2, #125	@ 0x7d
100052b4:	327c      	adds	r2, #124	@ 0x7c
100052b6:	00db      	lsls	r3, r3, #3
100052b8:	e6d6      	b.n	10005068 <_malloc_r+0x300>
100052ba:	f44f 737e 	mov.w	r3, #1016	@ 0x3f8
100052be:	207f      	movs	r0, #127	@ 0x7f
100052c0:	f04f 0e7e 	mov.w	lr, #126	@ 0x7e
100052c4:	e596      	b.n	10004df4 <_malloc_r+0x8c>
100052c6:	f44f 737e 	mov.w	r3, #1016	@ 0x3f8
100052ca:	227e      	movs	r2, #126	@ 0x7e
100052cc:	e6cc      	b.n	10005068 <_malloc_r+0x300>
100052ce:	6873      	ldr	r3, [r6, #4]
100052d0:	e766      	b.n	100051a0 <_malloc_r+0x438>
100052d2:	08e8      	lsrs	r0, r5, #3
100052d4:	f105 0308 	add.w	r3, r5, #8
100052d8:	e556      	b.n	10004d88 <_malloc_r+0x20>
100052da:	bf00      	nop
100052dc:	20001094 	.word	0x20001094

100052e0 <__malloc_lock>:
100052e0:	4801      	ldr	r0, [pc, #4]	@ (100052e8 <__malloc_lock+0x8>)
100052e2:	f000 b86f 	b.w	100053c4 <__retarget_lock_acquire_recursive>
100052e6:	bf00      	nop
100052e8:	20001090 	.word	0x20001090

100052ec <__malloc_unlock>:
100052ec:	4801      	ldr	r0, [pc, #4]	@ (100052f4 <__malloc_unlock+0x8>)
100052ee:	f000 b86b 	b.w	100053c8 <__retarget_lock_release_recursive>
100052f2:	bf00      	nop
100052f4:	20001090 	.word	0x20001090

100052f8 <memset>:
100052f8:	0783      	lsls	r3, r0, #30
100052fa:	b530      	push	{r4, r5, lr}
100052fc:	d046      	beq.n	1000538c <memset+0x94>
100052fe:	1884      	adds	r4, r0, r2
10005300:	4684      	mov	ip, r0
10005302:	e004      	b.n	1000530e <memset+0x16>
10005304:	f803 1b01 	strb.w	r1, [r3], #1
10005308:	079d      	lsls	r5, r3, #30
1000530a:	d004      	beq.n	10005316 <memset+0x1e>
1000530c:	469c      	mov	ip, r3
1000530e:	45a4      	cmp	ip, r4
10005310:	4663      	mov	r3, ip
10005312:	d1f7      	bne.n	10005304 <memset+0xc>
10005314:	bd30      	pop	{r4, r5, pc}
10005316:	3a01      	subs	r2, #1
10005318:	4402      	add	r2, r0
1000531a:	eba2 020c 	sub.w	r2, r2, ip
1000531e:	2a03      	cmp	r2, #3
10005320:	d929      	bls.n	10005376 <memset+0x7e>
10005322:	b2cc      	uxtb	r4, r1
10005324:	2a0f      	cmp	r2, #15
10005326:	eb04 2404 	add.w	r4, r4, r4, lsl #8
1000532a:	eb04 4404 	add.w	r4, r4, r4, lsl #16
1000532e:	d92f      	bls.n	10005390 <memset+0x98>
10005330:	f1a2 0c10 	sub.w	ip, r2, #16
10005334:	f103 0510 	add.w	r5, r3, #16
10005338:	f02c 0c0f 	bic.w	ip, ip, #15
1000533c:	44ac      	add	ip, r5
1000533e:	e9c3 4400 	strd	r4, r4, [r3]
10005342:	e9c3 4402 	strd	r4, r4, [r3, #8]
10005346:	3310      	adds	r3, #16
10005348:	4563      	cmp	r3, ip
1000534a:	d1f8      	bne.n	1000533e <memset+0x46>
1000534c:	f012 0f0c 	tst.w	r2, #12
10005350:	f002 0e0f 	and.w	lr, r2, #15
10005354:	d018      	beq.n	10005388 <memset+0x90>
10005356:	f02e 0c03 	bic.w	ip, lr, #3
1000535a:	f1ae 0504 	sub.w	r5, lr, #4
1000535e:	461a      	mov	r2, r3
10005360:	449c      	add	ip, r3
10005362:	f842 4b04 	str.w	r4, [r2], #4
10005366:	4562      	cmp	r2, ip
10005368:	d1fb      	bne.n	10005362 <memset+0x6a>
1000536a:	f025 0403 	bic.w	r4, r5, #3
1000536e:	3304      	adds	r3, #4
10005370:	f00e 0203 	and.w	r2, lr, #3
10005374:	4423      	add	r3, r4
10005376:	2a00      	cmp	r2, #0
10005378:	d0cc      	beq.n	10005314 <memset+0x1c>
1000537a:	b2c9      	uxtb	r1, r1
1000537c:	441a      	add	r2, r3
1000537e:	f803 1b01 	strb.w	r1, [r3], #1
10005382:	4293      	cmp	r3, r2
10005384:	d1fb      	bne.n	1000537e <memset+0x86>
10005386:	bd30      	pop	{r4, r5, pc}
10005388:	4672      	mov	r2, lr
1000538a:	e7f4      	b.n	10005376 <memset+0x7e>
1000538c:	4603      	mov	r3, r0
1000538e:	e7c6      	b.n	1000531e <memset+0x26>
10005390:	4696      	mov	lr, r2
10005392:	e7e0      	b.n	10005356 <memset+0x5e>

10005394 <_sbrk_r>:
10005394:	b538      	push	{r3, r4, r5, lr}
10005396:	2200      	movs	r2, #0
10005398:	4d06      	ldr	r5, [pc, #24]	@ (100053b4 <_sbrk_r+0x20>)
1000539a:	4604      	mov	r4, r0
1000539c:	4608      	mov	r0, r1
1000539e:	602a      	str	r2, [r5, #0]
100053a0:	f7fd fc04 	bl	10002bac <_sbrk>
100053a4:	1c43      	adds	r3, r0, #1
100053a6:	d000      	beq.n	100053aa <_sbrk_r+0x16>
100053a8:	bd38      	pop	{r3, r4, r5, pc}
100053aa:	682b      	ldr	r3, [r5, #0]
100053ac:	2b00      	cmp	r3, #0
100053ae:	d0fb      	beq.n	100053a8 <_sbrk_r+0x14>
100053b0:	6023      	str	r3, [r4, #0]
100053b2:	bd38      	pop	{r3, r4, r5, pc}
100053b4:	20001250 	.word	0x20001250

100053b8 <__errno>:
100053b8:	4b01      	ldr	r3, [pc, #4]	@ (100053c0 <__errno+0x8>)
100053ba:	6818      	ldr	r0, [r3, #0]
100053bc:	4770      	bx	lr
100053be:	bf00      	nop
100053c0:	20000d70 	.word	0x20000d70

100053c4 <__retarget_lock_acquire_recursive>:
100053c4:	4770      	bx	lr
100053c6:	bf00      	nop

100053c8 <__retarget_lock_release_recursive>:
100053c8:	4770      	bx	lr
100053ca:	bf00      	nop

100053cc <sysconf>:
100053cc:	2808      	cmp	r0, #8
100053ce:	d102      	bne.n	100053d6 <sysconf+0xa>
100053d0:	f44f 5080 	mov.w	r0, #4096	@ 0x1000
100053d4:	4770      	bx	lr
100053d6:	b508      	push	{r3, lr}
100053d8:	f7ff ffee 	bl	100053b8 <__errno>
100053dc:	2216      	movs	r2, #22
100053de:	4603      	mov	r3, r0
100053e0:	f04f 30ff 	mov.w	r0, #4294967295
100053e4:	601a      	str	r2, [r3, #0]
100053e6:	bd08      	pop	{r3, pc}

100053e8 <memcpy>:
100053e8:	4684      	mov	ip, r0
100053ea:	ea41 0300 	orr.w	r3, r1, r0
100053ee:	f013 0303 	ands.w	r3, r3, #3
100053f2:	d149      	bne.n	10005488 <memcpy+0xa0>
100053f4:	3a40      	subs	r2, #64	@ 0x40
100053f6:	d323      	bcc.n	10005440 <memcpy+0x58>
100053f8:	680b      	ldr	r3, [r1, #0]
100053fa:	6003      	str	r3, [r0, #0]
100053fc:	684b      	ldr	r3, [r1, #4]
100053fe:	6043      	str	r3, [r0, #4]
10005400:	688b      	ldr	r3, [r1, #8]
10005402:	6083      	str	r3, [r0, #8]
10005404:	68cb      	ldr	r3, [r1, #12]
10005406:	60c3      	str	r3, [r0, #12]
10005408:	690b      	ldr	r3, [r1, #16]
1000540a:	6103      	str	r3, [r0, #16]
1000540c:	694b      	ldr	r3, [r1, #20]
1000540e:	6143      	str	r3, [r0, #20]
10005410:	698b      	ldr	r3, [r1, #24]
10005412:	6183      	str	r3, [r0, #24]
10005414:	69cb      	ldr	r3, [r1, #28]
10005416:	61c3      	str	r3, [r0, #28]
10005418:	6a0b      	ldr	r3, [r1, #32]
1000541a:	6203      	str	r3, [r0, #32]
1000541c:	6a4b      	ldr	r3, [r1, #36]	@ 0x24
1000541e:	6243      	str	r3, [r0, #36]	@ 0x24
10005420:	6a8b      	ldr	r3, [r1, #40]	@ 0x28
10005422:	6283      	str	r3, [r0, #40]	@ 0x28
10005424:	6acb      	ldr	r3, [r1, #44]	@ 0x2c
10005426:	62c3      	str	r3, [r0, #44]	@ 0x2c
10005428:	6b0b      	ldr	r3, [r1, #48]	@ 0x30
1000542a:	6303      	str	r3, [r0, #48]	@ 0x30
1000542c:	6b4b      	ldr	r3, [r1, #52]	@ 0x34
1000542e:	6343      	str	r3, [r0, #52]	@ 0x34
10005430:	6b8b      	ldr	r3, [r1, #56]	@ 0x38
10005432:	6383      	str	r3, [r0, #56]	@ 0x38
10005434:	6bcb      	ldr	r3, [r1, #60]	@ 0x3c
10005436:	63c3      	str	r3, [r0, #60]	@ 0x3c
10005438:	3040      	adds	r0, #64	@ 0x40
1000543a:	3140      	adds	r1, #64	@ 0x40
1000543c:	3a40      	subs	r2, #64	@ 0x40
1000543e:	d2db      	bcs.n	100053f8 <memcpy+0x10>
10005440:	3230      	adds	r2, #48	@ 0x30
10005442:	d30b      	bcc.n	1000545c <memcpy+0x74>
10005444:	680b      	ldr	r3, [r1, #0]
10005446:	6003      	str	r3, [r0, #0]
10005448:	684b      	ldr	r3, [r1, #4]
1000544a:	6043      	str	r3, [r0, #4]
1000544c:	688b      	ldr	r3, [r1, #8]
1000544e:	6083      	str	r3, [r0, #8]
10005450:	68cb      	ldr	r3, [r1, #12]
10005452:	60c3      	str	r3, [r0, #12]
10005454:	3010      	adds	r0, #16
10005456:	3110      	adds	r1, #16
10005458:	3a10      	subs	r2, #16
1000545a:	d2f3      	bcs.n	10005444 <memcpy+0x5c>
1000545c:	320c      	adds	r2, #12
1000545e:	d305      	bcc.n	1000546c <memcpy+0x84>
10005460:	f851 3b04 	ldr.w	r3, [r1], #4
10005464:	f840 3b04 	str.w	r3, [r0], #4
10005468:	3a04      	subs	r2, #4
1000546a:	d2f9      	bcs.n	10005460 <memcpy+0x78>
1000546c:	3204      	adds	r2, #4
1000546e:	d008      	beq.n	10005482 <memcpy+0x9a>
10005470:	07d2      	lsls	r2, r2, #31
10005472:	bf1c      	itt	ne
10005474:	f811 3b01 	ldrbne.w	r3, [r1], #1
10005478:	f800 3b01 	strbne.w	r3, [r0], #1
1000547c:	d301      	bcc.n	10005482 <memcpy+0x9a>
1000547e:	880b      	ldrh	r3, [r1, #0]
10005480:	8003      	strh	r3, [r0, #0]
10005482:	4660      	mov	r0, ip
10005484:	4770      	bx	lr
10005486:	bf00      	nop
10005488:	2a08      	cmp	r2, #8
1000548a:	d313      	bcc.n	100054b4 <memcpy+0xcc>
1000548c:	078b      	lsls	r3, r1, #30
1000548e:	d0b1      	beq.n	100053f4 <memcpy+0xc>
10005490:	f010 0303 	ands.w	r3, r0, #3
10005494:	d0ae      	beq.n	100053f4 <memcpy+0xc>
10005496:	f1c3 0304 	rsb	r3, r3, #4
1000549a:	1ad2      	subs	r2, r2, r3
1000549c:	07db      	lsls	r3, r3, #31
1000549e:	bf1c      	itt	ne
100054a0:	f811 3b01 	ldrbne.w	r3, [r1], #1
100054a4:	f800 3b01 	strbne.w	r3, [r0], #1
100054a8:	d3a4      	bcc.n	100053f4 <memcpy+0xc>
100054aa:	f831 3b02 	ldrh.w	r3, [r1], #2
100054ae:	f820 3b02 	strh.w	r3, [r0], #2
100054b2:	e79f      	b.n	100053f4 <memcpy+0xc>
100054b4:	3a04      	subs	r2, #4
100054b6:	d3d9      	bcc.n	1000546c <memcpy+0x84>
100054b8:	3a01      	subs	r2, #1
100054ba:	f811 3b01 	ldrb.w	r3, [r1], #1
100054be:	f800 3b01 	strb.w	r3, [r0], #1
100054c2:	d2f9      	bcs.n	100054b8 <memcpy+0xd0>
100054c4:	780b      	ldrb	r3, [r1, #0]
100054c6:	7003      	strb	r3, [r0, #0]
100054c8:	784b      	ldrb	r3, [r1, #1]
100054ca:	7043      	strb	r3, [r0, #1]
100054cc:	788b      	ldrb	r3, [r1, #2]
100054ce:	7083      	strb	r3, [r0, #2]
100054d0:	4660      	mov	r0, ip
100054d2:	4770      	bx	lr

100054d4 <strlen>:
100054d4:	f020 0103 	bic.w	r1, r0, #3
100054d8:	f010 0003 	ands.w	r0, r0, #3
100054dc:	f1c0 0000 	rsb	r0, r0, #0
100054e0:	f851 3b04 	ldr.w	r3, [r1], #4
100054e4:	f100 0c04 	add.w	ip, r0, #4
100054e8:	ea4f 0ccc 	mov.w	ip, ip, lsl #3
100054ec:	f06f 0200 	mvn.w	r2, #0
100054f0:	bf1c      	itt	ne
100054f2:	fa22 f20c 	lsrne.w	r2, r2, ip
100054f6:	4313      	orrne	r3, r2
100054f8:	f04f 0c01 	mov.w	ip, #1
100054fc:	ea4c 2c0c 	orr.w	ip, ip, ip, lsl #8
10005500:	ea4c 4c0c 	orr.w	ip, ip, ip, lsl #16
10005504:	eba3 020c 	sub.w	r2, r3, ip
10005508:	ea22 0203 	bic.w	r2, r2, r3
1000550c:	ea12 12cc 	ands.w	r2, r2, ip, lsl #7
10005510:	bf04      	itt	eq
10005512:	f851 3b04 	ldreq.w	r3, [r1], #4
10005516:	3004      	addeq	r0, #4
10005518:	d0f4      	beq.n	10005504 <strlen+0x30>
1000551a:	f1c2 0100 	rsb	r1, r2, #0
1000551e:	ea02 0201 	and.w	r2, r2, r1
10005522:	fab2 f282 	clz	r2, r2
10005526:	f1c2 021f 	rsb	r2, r2, #31
1000552a:	eb00 00d2 	add.w	r0, r0, r2, lsr #3
1000552e:	4770      	bx	lr

10005530 <_malloc_trim_r>:
10005530:	e92d 43f8 	stmdb	sp!, {r3, r4, r5, r6, r7, r8, r9, lr}
10005534:	4606      	mov	r6, r0
10005536:	f8df 80ac 	ldr.w	r8, [pc, #172]	@ 100055e4 <_malloc_trim_r+0xb4>
1000553a:	2008      	movs	r0, #8
1000553c:	4689      	mov	r9, r1
1000553e:	f7ff ff45 	bl	100053cc <sysconf>
10005542:	4605      	mov	r5, r0
10005544:	4630      	mov	r0, r6
10005546:	f7ff fecb 	bl	100052e0 <__malloc_lock>
1000554a:	f8d8 3008 	ldr.w	r3, [r8, #8]
1000554e:	685f      	ldr	r7, [r3, #4]
10005550:	f027 0703 	bic.w	r7, r7, #3
10005554:	f1a7 0411 	sub.w	r4, r7, #17
10005558:	eba4 0409 	sub.w	r4, r4, r9
1000555c:	442c      	add	r4, r5
1000555e:	fbb4 f4f5 	udiv	r4, r4, r5
10005562:	3c01      	subs	r4, #1
10005564:	fb05 f404 	mul.w	r4, r5, r4
10005568:	42a5      	cmp	r5, r4
1000556a:	dc08      	bgt.n	1000557e <_malloc_trim_r+0x4e>
1000556c:	2100      	movs	r1, #0
1000556e:	4630      	mov	r0, r6
10005570:	f7ff ff10 	bl	10005394 <_sbrk_r>
10005574:	f8d8 3008 	ldr.w	r3, [r8, #8]
10005578:	443b      	add	r3, r7
1000557a:	4298      	cmp	r0, r3
1000557c:	d005      	beq.n	1000558a <_malloc_trim_r+0x5a>
1000557e:	4630      	mov	r0, r6
10005580:	f7ff feb4 	bl	100052ec <__malloc_unlock>
10005584:	2000      	movs	r0, #0
10005586:	e8bd 83f8 	ldmia.w	sp!, {r3, r4, r5, r6, r7, r8, r9, pc}
1000558a:	4261      	negs	r1, r4
1000558c:	4630      	mov	r0, r6
1000558e:	f7ff ff01 	bl	10005394 <_sbrk_r>
10005592:	3001      	adds	r0, #1
10005594:	d00f      	beq.n	100055b6 <_malloc_trim_r+0x86>
10005596:	1b3f      	subs	r7, r7, r4
10005598:	4a10      	ldr	r2, [pc, #64]	@ (100055dc <_malloc_trim_r+0xac>)
1000559a:	f8d8 3008 	ldr.w	r3, [r8, #8]
1000559e:	4630      	mov	r0, r6
100055a0:	f047 0701 	orr.w	r7, r7, #1
100055a4:	605f      	str	r7, [r3, #4]
100055a6:	6813      	ldr	r3, [r2, #0]
100055a8:	1b1b      	subs	r3, r3, r4
100055aa:	6013      	str	r3, [r2, #0]
100055ac:	f7ff fe9e 	bl	100052ec <__malloc_unlock>
100055b0:	2001      	movs	r0, #1
100055b2:	e8bd 83f8 	ldmia.w	sp!, {r3, r4, r5, r6, r7, r8, r9, pc}
100055b6:	2100      	movs	r1, #0
100055b8:	4630      	mov	r0, r6
100055ba:	f7ff feeb 	bl	10005394 <_sbrk_r>
100055be:	f8d8 2008 	ldr.w	r2, [r8, #8]
100055c2:	1a83      	subs	r3, r0, r2
100055c4:	2b0f      	cmp	r3, #15
100055c6:	ddda      	ble.n	1000557e <_malloc_trim_r+0x4e>
100055c8:	f043 0301 	orr.w	r3, r3, #1
100055cc:	4903      	ldr	r1, [pc, #12]	@ (100055dc <_malloc_trim_r+0xac>)
100055ce:	6053      	str	r3, [r2, #4]
100055d0:	4b03      	ldr	r3, [pc, #12]	@ (100055e0 <_malloc_trim_r+0xb0>)
100055d2:	681b      	ldr	r3, [r3, #0]
100055d4:	1ac0      	subs	r0, r0, r3
100055d6:	6008      	str	r0, [r1, #0]
100055d8:	e7d1      	b.n	1000557e <_malloc_trim_r+0x4e>
100055da:	bf00      	nop
100055dc:	20001094 	.word	0x20001094
100055e0:	20000960 	.word	0x20000960
100055e4:	20000968 	.word	0x20000968

100055e8 <_free_r>:
100055e8:	2900      	cmp	r1, #0
100055ea:	d05a      	beq.n	100056a2 <_free_r+0xba>
100055ec:	b5f8      	push	{r3, r4, r5, r6, r7, lr}
100055ee:	460c      	mov	r4, r1
100055f0:	4607      	mov	r7, r0
100055f2:	f7ff fe75 	bl	100052e0 <__malloc_lock>
100055f6:	4d73      	ldr	r5, [pc, #460]	@ (100057c4 <_free_r+0x1dc>)
100055f8:	f854 cc04 	ldr.w	ip, [r4, #-4]
100055fc:	f1a4 0208 	sub.w	r2, r4, #8
10005600:	68a8      	ldr	r0, [r5, #8]
10005602:	f02c 0301 	bic.w	r3, ip, #1
10005606:	f00c 0e01 	and.w	lr, ip, #1
1000560a:	18d1      	adds	r1, r2, r3
1000560c:	684e      	ldr	r6, [r1, #4]
1000560e:	4288      	cmp	r0, r1
10005610:	f026 0603 	bic.w	r6, r6, #3
10005614:	d07c      	beq.n	10005710 <_free_r+0x128>
10005616:	1988      	adds	r0, r1, r6
10005618:	604e      	str	r6, [r1, #4]
1000561a:	6840      	ldr	r0, [r0, #4]
1000561c:	f000 0001 	and.w	r0, r0, #1
10005620:	f1be 0f00 	cmp.w	lr, #0
10005624:	d12e      	bne.n	10005684 <_free_r+0x9c>
10005626:	f854 4c08 	ldr.w	r4, [r4, #-8]
1000562a:	f105 0c08 	add.w	ip, r5, #8
1000562e:	1b12      	subs	r2, r2, r4
10005630:	4423      	add	r3, r4
10005632:	6894      	ldr	r4, [r2, #8]
10005634:	4564      	cmp	r4, ip
10005636:	d060      	beq.n	100056fa <_free_r+0x112>
10005638:	f8d2 e00c 	ldr.w	lr, [r2, #12]
1000563c:	f8c4 e00c 	str.w	lr, [r4, #12]
10005640:	f8ce 4008 	str.w	r4, [lr, #8]
10005644:	2800      	cmp	r0, #0
10005646:	d07d      	beq.n	10005744 <_free_r+0x15c>
10005648:	f043 0001 	orr.w	r0, r3, #1
1000564c:	6050      	str	r0, [r2, #4]
1000564e:	600b      	str	r3, [r1, #0]
10005650:	f5b3 7f00 	cmp.w	r3, #512	@ 0x200
10005654:	d22e      	bcs.n	100056b4 <_free_r+0xcc>
10005656:	0958      	lsrs	r0, r3, #5
10005658:	08d9      	lsrs	r1, r3, #3
1000565a:	2301      	movs	r3, #1
1000565c:	4083      	lsls	r3, r0
1000565e:	6868      	ldr	r0, [r5, #4]
10005660:	3101      	adds	r1, #1
10005662:	4303      	orrs	r3, r0
10005664:	f855 0031 	ldr.w	r0, [r5, r1, lsl #3]
10005668:	606b      	str	r3, [r5, #4]
1000566a:	eb05 03c1 	add.w	r3, r5, r1, lsl #3
1000566e:	3b08      	subs	r3, #8
10005670:	e9c2 0302 	strd	r0, r3, [r2, #8]
10005674:	f845 2031 	str.w	r2, [r5, r1, lsl #3]
10005678:	60c2      	str	r2, [r0, #12]
1000567a:	4638      	mov	r0, r7
1000567c:	e8bd 40f8 	ldmia.w	sp!, {r3, r4, r5, r6, r7, lr}
10005680:	f7ff be34 	b.w	100052ec <__malloc_unlock>
10005684:	b970      	cbnz	r0, 100056a4 <_free_r+0xbc>
10005686:	4433      	add	r3, r6
10005688:	f105 0c08 	add.w	ip, r5, #8
1000568c:	6888      	ldr	r0, [r1, #8]
1000568e:	f043 0401 	orr.w	r4, r3, #1
10005692:	4560      	cmp	r0, ip
10005694:	d06e      	beq.n	10005774 <_free_r+0x18c>
10005696:	68c9      	ldr	r1, [r1, #12]
10005698:	60c1      	str	r1, [r0, #12]
1000569a:	6088      	str	r0, [r1, #8]
1000569c:	6054      	str	r4, [r2, #4]
1000569e:	50d3      	str	r3, [r2, r3]
100056a0:	e7d6      	b.n	10005650 <_free_r+0x68>
100056a2:	4770      	bx	lr
100056a4:	f04c 0101 	orr.w	r1, ip, #1
100056a8:	f5b3 7f00 	cmp.w	r3, #512	@ 0x200
100056ac:	f844 1c04 	str.w	r1, [r4, #-4]
100056b0:	50d3      	str	r3, [r2, r3]
100056b2:	d3d0      	bcc.n	10005656 <_free_r+0x6e>
100056b4:	f5b3 6f20 	cmp.w	r3, #2560	@ 0xa00
100056b8:	ea4f 2153 	mov.w	r1, r3, lsr #9
100056bc:	d244      	bcs.n	10005748 <_free_r+0x160>
100056be:	0999      	lsrs	r1, r3, #6
100056c0:	f101 0039 	add.w	r0, r1, #57	@ 0x39
100056c4:	f101 0438 	add.w	r4, r1, #56	@ 0x38
100056c8:	00c1      	lsls	r1, r0, #3
100056ca:	1868      	adds	r0, r5, r1
100056cc:	5869      	ldr	r1, [r5, r1]
100056ce:	3808      	subs	r0, #8
100056d0:	4288      	cmp	r0, r1
100056d2:	d103      	bne.n	100056dc <_free_r+0xf4>
100056d4:	e055      	b.n	10005782 <_free_r+0x19a>
100056d6:	6889      	ldr	r1, [r1, #8]
100056d8:	4288      	cmp	r0, r1
100056da:	d004      	beq.n	100056e6 <_free_r+0xfe>
100056dc:	684c      	ldr	r4, [r1, #4]
100056de:	f024 0403 	bic.w	r4, r4, #3
100056e2:	429c      	cmp	r4, r3
100056e4:	d8f7      	bhi.n	100056d6 <_free_r+0xee>
100056e6:	68c8      	ldr	r0, [r1, #12]
100056e8:	e9c2 1002 	strd	r1, r0, [r2, #8]
100056ec:	6082      	str	r2, [r0, #8]
100056ee:	4638      	mov	r0, r7
100056f0:	60ca      	str	r2, [r1, #12]
100056f2:	e8bd 40f8 	ldmia.w	sp!, {r3, r4, r5, r6, r7, lr}
100056f6:	f7ff bdf9 	b.w	100052ec <__malloc_unlock>
100056fa:	bb80      	cbnz	r0, 1000575e <_free_r+0x176>
100056fc:	441e      	add	r6, r3
100056fe:	e9d1 1302 	ldrd	r1, r3, [r1, #8]
10005702:	60cb      	str	r3, [r1, #12]
10005704:	6099      	str	r1, [r3, #8]
10005706:	f046 0301 	orr.w	r3, r6, #1
1000570a:	6053      	str	r3, [r2, #4]
1000570c:	5196      	str	r6, [r2, r6]
1000570e:	e7b4      	b.n	1000567a <_free_r+0x92>
10005710:	441e      	add	r6, r3
10005712:	f1be 0f00 	cmp.w	lr, #0
10005716:	d107      	bne.n	10005728 <_free_r+0x140>
10005718:	f854 3c08 	ldr.w	r3, [r4, #-8]
1000571c:	1ad2      	subs	r2, r2, r3
1000571e:	441e      	add	r6, r3
10005720:	e9d2 1302 	ldrd	r1, r3, [r2, #8]
10005724:	60cb      	str	r3, [r1, #12]
10005726:	6099      	str	r1, [r3, #8]
10005728:	f046 0301 	orr.w	r3, r6, #1
1000572c:	6053      	str	r3, [r2, #4]
1000572e:	4b26      	ldr	r3, [pc, #152]	@ (100057c8 <_free_r+0x1e0>)
10005730:	60aa      	str	r2, [r5, #8]
10005732:	681b      	ldr	r3, [r3, #0]
10005734:	42b3      	cmp	r3, r6
10005736:	d8a0      	bhi.n	1000567a <_free_r+0x92>
10005738:	4b24      	ldr	r3, [pc, #144]	@ (100057cc <_free_r+0x1e4>)
1000573a:	4638      	mov	r0, r7
1000573c:	6819      	ldr	r1, [r3, #0]
1000573e:	f7ff fef7 	bl	10005530 <_malloc_trim_r>
10005742:	e79a      	b.n	1000567a <_free_r+0x92>
10005744:	4433      	add	r3, r6
10005746:	e7a1      	b.n	1000568c <_free_r+0xa4>
10005748:	2914      	cmp	r1, #20
1000574a:	d90d      	bls.n	10005768 <_free_r+0x180>
1000574c:	2954      	cmp	r1, #84	@ 0x54
1000574e:	d81f      	bhi.n	10005790 <_free_r+0x1a8>
10005750:	0b19      	lsrs	r1, r3, #12
10005752:	f101 006f 	add.w	r0, r1, #111	@ 0x6f
10005756:	f101 046e 	add.w	r4, r1, #110	@ 0x6e
1000575a:	00c1      	lsls	r1, r0, #3
1000575c:	e7b5      	b.n	100056ca <_free_r+0xe2>
1000575e:	f043 0001 	orr.w	r0, r3, #1
10005762:	6050      	str	r0, [r2, #4]
10005764:	600b      	str	r3, [r1, #0]
10005766:	e788      	b.n	1000567a <_free_r+0x92>
10005768:	f101 005c 	add.w	r0, r1, #92	@ 0x5c
1000576c:	f101 045b 	add.w	r4, r1, #91	@ 0x5b
10005770:	00c1      	lsls	r1, r0, #3
10005772:	e7aa      	b.n	100056ca <_free_r+0xe2>
10005774:	e9c5 2204 	strd	r2, r2, [r5, #16]
10005778:	e9c2 cc02 	strd	ip, ip, [r2, #8]
1000577c:	6054      	str	r4, [r2, #4]
1000577e:	50d3      	str	r3, [r2, r3]
10005780:	e77b      	b.n	1000567a <_free_r+0x92>
10005782:	10a4      	asrs	r4, r4, #2
10005784:	2301      	movs	r3, #1
10005786:	40a3      	lsls	r3, r4
10005788:	686c      	ldr	r4, [r5, #4]
1000578a:	4323      	orrs	r3, r4
1000578c:	606b      	str	r3, [r5, #4]
1000578e:	e7ab      	b.n	100056e8 <_free_r+0x100>
10005790:	f5b1 7faa 	cmp.w	r1, #340	@ 0x154
10005794:	d806      	bhi.n	100057a4 <_free_r+0x1bc>
10005796:	0bd9      	lsrs	r1, r3, #15
10005798:	f101 0078 	add.w	r0, r1, #120	@ 0x78
1000579c:	f101 0477 	add.w	r4, r1, #119	@ 0x77
100057a0:	00c1      	lsls	r1, r0, #3
100057a2:	e792      	b.n	100056ca <_free_r+0xe2>
100057a4:	f240 5054 	movw	r0, #1364	@ 0x554
100057a8:	4281      	cmp	r1, r0
100057aa:	d806      	bhi.n	100057ba <_free_r+0x1d2>
100057ac:	0c99      	lsrs	r1, r3, #18
100057ae:	f101 007d 	add.w	r0, r1, #125	@ 0x7d
100057b2:	f101 047c 	add.w	r4, r1, #124	@ 0x7c
100057b6:	00c1      	lsls	r1, r0, #3
100057b8:	e787      	b.n	100056ca <_free_r+0xe2>
100057ba:	f44f 717e 	mov.w	r1, #1016	@ 0x3f8
100057be:	247e      	movs	r4, #126	@ 0x7e
100057c0:	e783      	b.n	100056ca <_free_r+0xe2>
100057c2:	bf00      	nop
100057c4:	20000968 	.word	0x20000968
100057c8:	20000964 	.word	0x20000964
100057cc:	200010c4 	.word	0x200010c4

100057d0 <_fini>:
100057d0:	b5f8      	push	{r3, r4, r5, r6, r7, lr}
100057d2:	bf00      	nop
100057d4:	0000      	movs	r0, r0
	...

100057d8 <____aeabi_f2d_veneer>:
100057d8:	f85f f000 	ldr.w	pc, [pc]	@ 100057dc <____aeabi_f2d_veneer+0x4>
100057dc:	200004e9 	.word	0x200004e9

100057e0 <____aeabi_uldivmod_veneer>:
100057e0:	f85f f000 	ldr.w	pc, [pc]	@ 100057e4 <____aeabi_uldivmod_veneer+0x4>
100057e4:	20000599 	.word	0x20000599

100057e8 <__mutex_exit_veneer>:
100057e8:	f85f f000 	ldr.w	pc, [pc]	@ 100057ec <__mutex_exit_veneer+0x4>
100057ec:	200001e5 	.word	0x200001e5

100057f0 <__mutex_try_enter_block_until_veneer>:
100057f0:	f85f f000 	ldr.w	pc, [pc]	@ 100057f4 <__mutex_try_enter_block_until_veneer+0x4>
100057f4:	2000017d 	.word	0x2000017d

100057f8 <__pre_init_runtime_init_bootrom_reset>:
100057f8:	1000107d                                }...

100057fc <__pre_init_runtime_init_early_resets>:
100057fc:	10000ff1                                ....

10005800 <__pre_init_runtime_init_usb_power_down>:
10005800:	10001025                                %...

10005804 <__pre_init_runtime_init_clocks>:
10005804:	100010c9                                ....

10005808 <__pre_init_runtime_init_post_clock_resets>:
10005808:	1000105d                                ]...

1000580c <__pre_init_runtime_init_boot_locks_reset>:
1000580c:	10000f75                                u...

10005810 <__pre_init_runtime_init_spin_locks_reset>:
10005810:	100010a5                                ....

10005814 <__pre_init_runtime_init_bootrom_locking_enable>:
10005814:	10000f61                                a...

10005818 <__pre_init_runtime_init_mutex>:
10005818:	100005f1                                ....

1000581c <__pre_init_runtime_init_install_ram_vector_table>:
1000581c:	100010a9                                ....

10005820 <__pre_init_runtime_init_default_alarm_pool>:
10005820:	10000969                                i...

10005824 <__pre_init_first_per_core_initializer>:
10005824:	10000fc1                                ....

10005828 <__pre_init_runtime_init_per_core_bootrom_reset>:
10005828:	10001091                                ....

1000582c <__pre_init_runtime_init_per_core_enable_coprocessors>:
1000582c:	10001041                                A...

10005830 <__pre_init_spinlock_set_extexclall>:
10005830:	100004f1                                ....

10005834 <__pre_init_runtime_init_per_core_irq_priorities>:
10005834:	10000519                                ....

10005838 <__frame_dummy_init_array_entry>:
10005838:	10000219 100042ed                       .....B..

Disassembly of section .data:

20000110 <mutex_enter_block_until>:
20000110:	f04f 4150 	mov.w	r1, #3489660928	@ 0xd0000000
20000114:	e92d 41f0 	stmdb	sp!, {r4, r5, r6, r7, r8, lr}
20000118:	2700      	movs	r7, #0
2000011a:	4604      	mov	r4, r0
2000011c:	4616      	mov	r6, r2
2000011e:	461d      	mov	r5, r3
20000120:	f8d1 8000 	ldr.w	r8, [r1]
20000124:	e008      	b.n	20000138 <mutex_enter_block_until+0x28>
20000126:	e8c1 7f8f 	stlb	r7, [r1]
2000012a:	f38c 8810 	msr	PRIMASK, ip
2000012e:	4630      	mov	r0, r6
20000130:	4629      	mov	r1, r5
20000132:	f000 fbf1 	bl	20000918 <__best_effort_wfe_or_timeout_veneer>
20000136:	b9e8      	cbnz	r0, 20000174 <mutex_enter_block_until+0x64>
20000138:	6821      	ldr	r1, [r4, #0]
2000013a:	f3ef 8c10 	mrs	ip, PRIMASK
2000013e:	b672      	cpsid	i
20000140:	e8d1 2fcf 	ldaexb	r2, [r1]
20000144:	2301      	movs	r3, #1
20000146:	2a00      	cmp	r2, #0
20000148:	d1fa      	bne.n	20000140 <mutex_enter_block_until+0x30>
2000014a:	e8c1 3f42 	strexb	r2, r3, [r1]
2000014e:	2a00      	cmp	r2, #0
20000150:	d1f6      	bne.n	20000140 <mutex_enter_block_until+0x30>
20000152:	f3bf 8f5f 	dmb	sy
20000156:	f994 3004 	ldrsb.w	r3, [r4, #4]
2000015a:	6821      	ldr	r1, [r4, #0]
2000015c:	2b00      	cmp	r3, #0
2000015e:	dae2      	bge.n	20000126 <mutex_enter_block_until+0x16>
20000160:	2300      	movs	r3, #0
20000162:	f884 8004 	strb.w	r8, [r4, #4]
20000166:	e8c1 3f8f 	stlb	r3, [r1]
2000016a:	f38c 8810 	msr	PRIMASK, ip
2000016e:	2001      	movs	r0, #1
20000170:	e8bd 81f0 	ldmia.w	sp!, {r4, r5, r6, r7, r8, pc}
20000174:	2000      	movs	r0, #0
20000176:	e8bd 81f0 	ldmia.w	sp!, {r4, r5, r6, r7, r8, pc}
2000017a:	bf00      	nop

2000017c <mutex_try_enter_block_until>:
2000017c:	b530      	push	{r4, r5, lr}
2000017e:	6804      	ldr	r4, [r0, #0]
20000180:	f3ef 8c10 	mrs	ip, PRIMASK
20000184:	b672      	cpsid	i
20000186:	e8d4 efcf 	ldaexb	lr, [r4]
2000018a:	2501      	movs	r5, #1
2000018c:	f1be 0f00 	cmp.w	lr, #0
20000190:	d1f9      	bne.n	20000186 <mutex_try_enter_block_until+0xa>
20000192:	e8c4 5f4e 	strexb	lr, r5, [r4]
20000196:	f1be 0f00 	cmp.w	lr, #0
2000019a:	d1f4      	bne.n	20000186 <mutex_try_enter_block_until+0xa>
2000019c:	f3bf 8f5f 	dmb	sy
200001a0:	f990 4004 	ldrsb.w	r4, [r0, #4]
200001a4:	6805      	ldr	r5, [r0, #0]
200001a6:	2c00      	cmp	r4, #0
200001a8:	db10      	blt.n	200001cc <mutex_try_enter_block_until+0x50>
200001aa:	2100      	movs	r1, #0
200001ac:	e8c5 1f8f 	stlb	r1, [r5]
200001b0:	f38c 8810 	msr	PRIMASK, ip
200001b4:	f04f 4550 	mov.w	r5, #3489660928	@ 0xd0000000
200001b8:	f995 5000 	ldrsb.w	r5, [r5]
200001bc:	42a5      	cmp	r5, r4
200001be:	d101      	bne.n	200001c4 <mutex_try_enter_block_until+0x48>
200001c0:	4608      	mov	r0, r1
200001c2:	bd30      	pop	{r4, r5, pc}
200001c4:	e8bd 4030 	ldmia.w	sp!, {r4, r5, lr}
200001c8:	f7ff bfa2 	b.w	20000110 <mutex_enter_block_until>
200001cc:	f04f 4250 	mov.w	r2, #3489660928	@ 0xd0000000
200001d0:	6812      	ldr	r2, [r2, #0]
200001d2:	2300      	movs	r3, #0
200001d4:	7102      	strb	r2, [r0, #4]
200001d6:	e8c5 3f8f 	stlb	r3, [r5]
200001da:	f38c 8810 	msr	PRIMASK, ip
200001de:	2001      	movs	r0, #1
200001e0:	bd30      	pop	{r4, r5, pc}
200001e2:	bf00      	nop

200001e4 <mutex_exit>:
200001e4:	6803      	ldr	r3, [r0, #0]
200001e6:	f3ef 8210 	mrs	r2, PRIMASK
200001ea:	b672      	cpsid	i
200001ec:	e8d3 cfcf 	ldaexb	ip, [r3]
200001f0:	2101      	movs	r1, #1
200001f2:	f1bc 0f00 	cmp.w	ip, #0
200001f6:	d1f9      	bne.n	200001ec <mutex_exit+0x8>
200001f8:	e8c3 1f4c 	strexb	ip, r1, [r3]
200001fc:	f1bc 0f00 	cmp.w	ip, #0
20000200:	d1f4      	bne.n	200001ec <mutex_exit+0x8>
20000202:	f3bf 8f5f 	dmb	sy
20000206:	f04f 0cff 	mov.w	ip, #255	@ 0xff
2000020a:	2300      	movs	r3, #0
2000020c:	6801      	ldr	r1, [r0, #0]
2000020e:	f880 c004 	strb.w	ip, [r0, #4]
20000212:	e8c1 3f8f 	stlb	r3, [r1]
20000216:	f382 8810 	msr	PRIMASK, r2
2000021a:	bf40      	sev
2000021c:	4770      	bx	lr
2000021e:	bf00      	nop

20000220 <__aeabi_drsub>:
20000220:	f081 4100 	eor.w	r1, r1, #2147483648	@ 0x80000000
20000224:	e002      	b.n	2000022c <__adddf3>
20000226:	bf00      	nop

20000228 <__aeabi_dsub>:
20000228:	f083 4300 	eor.w	r3, r3, #2147483648	@ 0x80000000

2000022c <__adddf3>:
2000022c:	b530      	push	{r4, r5, lr}
2000022e:	ea4f 0441 	mov.w	r4, r1, lsl #1
20000232:	ea4f 0543 	mov.w	r5, r3, lsl #1
20000236:	ea94 0f05 	teq	r4, r5
2000023a:	bf08      	it	eq
2000023c:	ea90 0f02 	teqeq	r0, r2
20000240:	bf1f      	itttt	ne
20000242:	ea54 0c00 	orrsne.w	ip, r4, r0
20000246:	ea55 0c02 	orrsne.w	ip, r5, r2
2000024a:	ea7f 5c64 	mvnsne.w	ip, r4, asr #21
2000024e:	ea7f 5c65 	mvnsne.w	ip, r5, asr #21
20000252:	f000 80e2 	beq.w	2000041a <__adddf3+0x1ee>
20000256:	ea4f 5454 	mov.w	r4, r4, lsr #21
2000025a:	ebd4 5555 	rsbs	r5, r4, r5, lsr #21
2000025e:	bfb8      	it	lt
20000260:	426d      	neglt	r5, r5
20000262:	dd0c      	ble.n	2000027e <__adddf3+0x52>
20000264:	442c      	add	r4, r5
20000266:	ea80 0202 	eor.w	r2, r0, r2
2000026a:	ea81 0303 	eor.w	r3, r1, r3
2000026e:	ea82 0000 	eor.w	r0, r2, r0
20000272:	ea83 0101 	eor.w	r1, r3, r1
20000276:	ea80 0202 	eor.w	r2, r0, r2
2000027a:	ea81 0303 	eor.w	r3, r1, r3
2000027e:	2d36      	cmp	r5, #54	@ 0x36
20000280:	bf88      	it	hi
20000282:	bd30      	pophi	{r4, r5, pc}
20000284:	f011 4f00 	tst.w	r1, #2147483648	@ 0x80000000
20000288:	ea4f 3101 	mov.w	r1, r1, lsl #12
2000028c:	f44f 1c80 	mov.w	ip, #1048576	@ 0x100000
20000290:	ea4c 3111 	orr.w	r1, ip, r1, lsr #12
20000294:	d002      	beq.n	2000029c <__adddf3+0x70>
20000296:	4240      	negs	r0, r0
20000298:	eb61 0141 	sbc.w	r1, r1, r1, lsl #1
2000029c:	f013 4f00 	tst.w	r3, #2147483648	@ 0x80000000
200002a0:	ea4f 3303 	mov.w	r3, r3, lsl #12
200002a4:	ea4c 3313 	orr.w	r3, ip, r3, lsr #12
200002a8:	d002      	beq.n	200002b0 <__adddf3+0x84>
200002aa:	4252      	negs	r2, r2
200002ac:	eb63 0343 	sbc.w	r3, r3, r3, lsl #1
200002b0:	ea94 0f05 	teq	r4, r5
200002b4:	f000 80a7 	beq.w	20000406 <__adddf3+0x1da>
200002b8:	f1a4 0401 	sub.w	r4, r4, #1
200002bc:	f1d5 0e20 	rsbs	lr, r5, #32
200002c0:	db0d      	blt.n	200002de <__adddf3+0xb2>
200002c2:	fa02 fc0e 	lsl.w	ip, r2, lr
200002c6:	fa22 f205 	lsr.w	r2, r2, r5
200002ca:	1880      	adds	r0, r0, r2
200002cc:	f141 0100 	adc.w	r1, r1, #0
200002d0:	fa03 f20e 	lsl.w	r2, r3, lr
200002d4:	1880      	adds	r0, r0, r2
200002d6:	fa43 f305 	asr.w	r3, r3, r5
200002da:	4159      	adcs	r1, r3
200002dc:	e00e      	b.n	200002fc <__adddf3+0xd0>
200002de:	f1a5 0520 	sub.w	r5, r5, #32
200002e2:	f10e 0e20 	add.w	lr, lr, #32
200002e6:	2a01      	cmp	r2, #1
200002e8:	fa03 fc0e 	lsl.w	ip, r3, lr
200002ec:	bf28      	it	cs
200002ee:	f04c 0c02 	orrcs.w	ip, ip, #2
200002f2:	fa43 f305 	asr.w	r3, r3, r5
200002f6:	18c0      	adds	r0, r0, r3
200002f8:	eb51 71e3 	adcs.w	r1, r1, r3, asr #31
200002fc:	f001 4500 	and.w	r5, r1, #2147483648	@ 0x80000000
20000300:	d507      	bpl.n	20000312 <__adddf3+0xe6>
20000302:	f04f 0e00 	mov.w	lr, #0
20000306:	f1dc 0c00 	rsbs	ip, ip, #0
2000030a:	eb7e 0000 	sbcs.w	r0, lr, r0
2000030e:	eb6e 0101 	sbc.w	r1, lr, r1
20000312:	f5b1 1f80 	cmp.w	r1, #1048576	@ 0x100000
20000316:	d31b      	bcc.n	20000350 <__adddf3+0x124>
20000318:	f5b1 1f00 	cmp.w	r1, #2097152	@ 0x200000
2000031c:	d30c      	bcc.n	20000338 <__adddf3+0x10c>
2000031e:	0849      	lsrs	r1, r1, #1
20000320:	ea5f 0030 	movs.w	r0, r0, rrx
20000324:	ea4f 0c3c 	mov.w	ip, ip, rrx
20000328:	f104 0401 	add.w	r4, r4, #1
2000032c:	ea4f 5244 	mov.w	r2, r4, lsl #21
20000330:	f512 0f80 	cmn.w	r2, #4194304	@ 0x400000
20000334:	f080 809a 	bcs.w	2000046c <__adddf3+0x240>
20000338:	f1bc 4f00 	cmp.w	ip, #2147483648	@ 0x80000000
2000033c:	bf08      	it	eq
2000033e:	ea5f 0c50 	movseq.w	ip, r0, lsr #1
20000342:	f150 0000 	adcs.w	r0, r0, #0
20000346:	eb41 5104 	adc.w	r1, r1, r4, lsl #20
2000034a:	ea41 0105 	orr.w	r1, r1, r5
2000034e:	bd30      	pop	{r4, r5, pc}
20000350:	ea5f 0c4c 	movs.w	ip, ip, lsl #1
20000354:	4140      	adcs	r0, r0
20000356:	eb41 0101 	adc.w	r1, r1, r1
2000035a:	3c01      	subs	r4, #1
2000035c:	bf28      	it	cs
2000035e:	f5b1 1f80 	cmpcs.w	r1, #1048576	@ 0x100000
20000362:	d2e9      	bcs.n	20000338 <__adddf3+0x10c>
20000364:	f091 0f00 	teq	r1, #0
20000368:	bf04      	itt	eq
2000036a:	4601      	moveq	r1, r0
2000036c:	2000      	moveq	r0, #0
2000036e:	fab1 f381 	clz	r3, r1
20000372:	bf08      	it	eq
20000374:	3320      	addeq	r3, #32
20000376:	f1a3 030b 	sub.w	r3, r3, #11
2000037a:	f1b3 0220 	subs.w	r2, r3, #32
2000037e:	da0c      	bge.n	2000039a <__adddf3+0x16e>
20000380:	320c      	adds	r2, #12
20000382:	dd08      	ble.n	20000396 <__adddf3+0x16a>
20000384:	f102 0c14 	add.w	ip, r2, #20
20000388:	f1c2 020c 	rsb	r2, r2, #12
2000038c:	fa01 f00c 	lsl.w	r0, r1, ip
20000390:	fa21 f102 	lsr.w	r1, r1, r2
20000394:	e00c      	b.n	200003b0 <__adddf3+0x184>
20000396:	f102 0214 	add.w	r2, r2, #20
2000039a:	bfd8      	it	le
2000039c:	f1c2 0c20 	rsble	ip, r2, #32
200003a0:	fa01 f102 	lsl.w	r1, r1, r2
200003a4:	fa20 fc0c 	lsr.w	ip, r0, ip
200003a8:	bfdc      	itt	le
200003aa:	ea41 010c 	orrle.w	r1, r1, ip
200003ae:	4090      	lslle	r0, r2
200003b0:	1ae4      	subs	r4, r4, r3
200003b2:	bfa2      	ittt	ge
200003b4:	eb01 5104 	addge.w	r1, r1, r4, lsl #20
200003b8:	4329      	orrge	r1, r5
200003ba:	bd30      	popge	{r4, r5, pc}
200003bc:	ea6f 0404 	mvn.w	r4, r4
200003c0:	3c1f      	subs	r4, #31
200003c2:	da1c      	bge.n	200003fe <__adddf3+0x1d2>
200003c4:	340c      	adds	r4, #12
200003c6:	dc0e      	bgt.n	200003e6 <__adddf3+0x1ba>
200003c8:	f104 0414 	add.w	r4, r4, #20
200003cc:	f1c4 0220 	rsb	r2, r4, #32
200003d0:	fa20 f004 	lsr.w	r0, r0, r4
200003d4:	fa01 f302 	lsl.w	r3, r1, r2
200003d8:	ea40 0003 	orr.w	r0, r0, r3
200003dc:	fa21 f304 	lsr.w	r3, r1, r4
200003e0:	ea45 0103 	orr.w	r1, r5, r3
200003e4:	bd30      	pop	{r4, r5, pc}
200003e6:	f1c4 040c 	rsb	r4, r4, #12
200003ea:	f1c4 0220 	rsb	r2, r4, #32
200003ee:	fa20 f002 	lsr.w	r0, r0, r2
200003f2:	fa01 f304 	lsl.w	r3, r1, r4
200003f6:	ea40 0003 	orr.w	r0, r0, r3
200003fa:	4629      	mov	r1, r5
200003fc:	bd30      	pop	{r4, r5, pc}
200003fe:	fa21 f004 	lsr.w	r0, r1, r4
20000402:	4629      	mov	r1, r5
20000404:	bd30      	pop	{r4, r5, pc}
20000406:	f094 0f00 	teq	r4, #0
2000040a:	f483 1380 	eor.w	r3, r3, #1048576	@ 0x100000
2000040e:	bf06      	itte	eq
20000410:	f481 1180 	eoreq.w	r1, r1, #1048576	@ 0x100000
20000414:	3401      	addeq	r4, #1
20000416:	3d01      	subne	r5, #1
20000418:	e74e      	b.n	200002b8 <__adddf3+0x8c>
2000041a:	ea7f 5c64 	mvns.w	ip, r4, asr #21
2000041e:	bf18      	it	ne
20000420:	ea7f 5c65 	mvnsne.w	ip, r5, asr #21
20000424:	d029      	beq.n	2000047a <__adddf3+0x24e>
20000426:	ea94 0f05 	teq	r4, r5
2000042a:	bf08      	it	eq
2000042c:	ea90 0f02 	teqeq	r0, r2
20000430:	d005      	beq.n	2000043e <__adddf3+0x212>
20000432:	ea54 0c00 	orrs.w	ip, r4, r0
20000436:	bf04      	itt	eq
20000438:	4619      	moveq	r1, r3
2000043a:	4610      	moveq	r0, r2
2000043c:	bd30      	pop	{r4, r5, pc}
2000043e:	ea91 0f03 	teq	r1, r3
20000442:	bf1e      	ittt	ne
20000444:	2100      	movne	r1, #0
20000446:	2000      	movne	r0, #0
20000448:	bd30      	popne	{r4, r5, pc}
2000044a:	ea5f 5c54 	movs.w	ip, r4, lsr #21
2000044e:	d105      	bne.n	2000045c <__adddf3+0x230>
20000450:	0040      	lsls	r0, r0, #1
20000452:	4149      	adcs	r1, r1
20000454:	bf28      	it	cs
20000456:	f041 4100 	orrcs.w	r1, r1, #2147483648	@ 0x80000000
2000045a:	bd30      	pop	{r4, r5, pc}
2000045c:	f514 0480 	adds.w	r4, r4, #4194304	@ 0x400000
20000460:	bf3c      	itt	cc
20000462:	f501 1180 	addcc.w	r1, r1, #1048576	@ 0x100000
20000466:	bd30      	popcc	{r4, r5, pc}
20000468:	f001 4500 	and.w	r5, r1, #2147483648	@ 0x80000000
2000046c:	f045 41fe 	orr.w	r1, r5, #2130706432	@ 0x7f000000
20000470:	f441 0170 	orr.w	r1, r1, #15728640	@ 0xf00000
20000474:	f04f 0000 	mov.w	r0, #0
20000478:	bd30      	pop	{r4, r5, pc}
2000047a:	ea7f 5c64 	mvns.w	ip, r4, asr #21
2000047e:	bf1a      	itte	ne
20000480:	4619      	movne	r1, r3
20000482:	4610      	movne	r0, r2
20000484:	ea7f 5c65 	mvnseq.w	ip, r5, asr #21
20000488:	bf1c      	itt	ne
2000048a:	460b      	movne	r3, r1
2000048c:	4602      	movne	r2, r0
2000048e:	ea50 3401 	orrs.w	r4, r0, r1, lsl #12
20000492:	bf06      	itte	eq
20000494:	ea52 3503 	orrseq.w	r5, r2, r3, lsl #12
20000498:	ea91 0f03 	teqeq	r1, r3
2000049c:	f441 2100 	orrne.w	r1, r1, #524288	@ 0x80000
200004a0:	bd30      	pop	{r4, r5, pc}
200004a2:	bf00      	nop

200004a4 <__aeabi_ui2d>:
200004a4:	f090 0f00 	teq	r0, #0
200004a8:	bf04      	itt	eq
200004aa:	2100      	moveq	r1, #0
200004ac:	4770      	bxeq	lr
200004ae:	b530      	push	{r4, r5, lr}
200004b0:	f44f 6480 	mov.w	r4, #1024	@ 0x400
200004b4:	f104 0432 	add.w	r4, r4, #50	@ 0x32
200004b8:	f04f 0500 	mov.w	r5, #0
200004bc:	f04f 0100 	mov.w	r1, #0
200004c0:	e750      	b.n	20000364 <__adddf3+0x138>
200004c2:	bf00      	nop

200004c4 <__aeabi_i2d>:
200004c4:	f090 0f00 	teq	r0, #0
200004c8:	bf04      	itt	eq
200004ca:	2100      	moveq	r1, #0
200004cc:	4770      	bxeq	lr
200004ce:	b530      	push	{r4, r5, lr}
200004d0:	f44f 6480 	mov.w	r4, #1024	@ 0x400
200004d4:	f104 0432 	add.w	r4, r4, #50	@ 0x32
200004d8:	f010 4500 	ands.w	r5, r0, #2147483648	@ 0x80000000
200004dc:	bf48      	it	mi
200004de:	4240      	negmi	r0, r0
200004e0:	f04f 0100 	mov.w	r1, #0
200004e4:	e73e      	b.n	20000364 <__adddf3+0x138>
200004e6:	bf00      	nop

200004e8 <__aeabi_f2d>:
200004e8:	0042      	lsls	r2, r0, #1
200004ea:	ea4f 01e2 	mov.w	r1, r2, asr #3
200004ee:	ea4f 0131 	mov.w	r1, r1, rrx
200004f2:	ea4f 7002 	mov.w	r0, r2, lsl #28
200004f6:	bf1f      	itttt	ne
200004f8:	f012 437f 	andsne.w	r3, r2, #4278190080	@ 0xff000000
200004fc:	f093 4f7f 	teqne	r3, #4278190080	@ 0xff000000
20000500:	f081 5160 	eorne.w	r1, r1, #939524096	@ 0x38000000
20000504:	4770      	bxne	lr
20000506:	f032 427f 	bics.w	r2, r2, #4278190080	@ 0xff000000
2000050a:	bf08      	it	eq
2000050c:	4770      	bxeq	lr
2000050e:	f093 4f7f 	teq	r3, #4278190080	@ 0xff000000
20000512:	bf04      	itt	eq
20000514:	f441 2100 	orreq.w	r1, r1, #524288	@ 0x80000
20000518:	4770      	bxeq	lr
2000051a:	b530      	push	{r4, r5, lr}
2000051c:	f44f 7460 	mov.w	r4, #896	@ 0x380
20000520:	f001 4500 	and.w	r5, r1, #2147483648	@ 0x80000000
20000524:	f021 4100 	bic.w	r1, r1, #2147483648	@ 0x80000000
20000528:	e71c      	b.n	20000364 <__adddf3+0x138>
2000052a:	bf00      	nop

2000052c <__aeabi_ul2d>:
2000052c:	ea50 0201 	orrs.w	r2, r0, r1
20000530:	bf08      	it	eq
20000532:	4770      	bxeq	lr
20000534:	b530      	push	{r4, r5, lr}
20000536:	f04f 0500 	mov.w	r5, #0
2000053a:	e00a      	b.n	20000552 <__aeabi_l2d+0x16>

2000053c <__aeabi_l2d>:
2000053c:	ea50 0201 	orrs.w	r2, r0, r1
20000540:	bf08      	it	eq
20000542:	4770      	bxeq	lr
20000544:	b530      	push	{r4, r5, lr}
20000546:	f011 4500 	ands.w	r5, r1, #2147483648	@ 0x80000000
2000054a:	d502      	bpl.n	20000552 <__aeabi_l2d+0x16>
2000054c:	4240      	negs	r0, r0
2000054e:	eb61 0141 	sbc.w	r1, r1, r1, lsl #1
20000552:	f44f 6480 	mov.w	r4, #1024	@ 0x400
20000556:	f104 0432 	add.w	r4, r4, #50	@ 0x32
2000055a:	ea5f 5c91 	movs.w	ip, r1, lsr #22
2000055e:	f43f aed8 	beq.w	20000312 <__adddf3+0xe6>
20000562:	f04f 0203 	mov.w	r2, #3
20000566:	ea5f 0cdc 	movs.w	ip, ip, lsr #3
2000056a:	bf18      	it	ne
2000056c:	3203      	addne	r2, #3
2000056e:	ea5f 0cdc 	movs.w	ip, ip, lsr #3
20000572:	bf18      	it	ne
20000574:	3203      	addne	r2, #3
20000576:	eb02 02dc 	add.w	r2, r2, ip, lsr #3
2000057a:	f1c2 0320 	rsb	r3, r2, #32
2000057e:	fa00 fc03 	lsl.w	ip, r0, r3
20000582:	fa20 f002 	lsr.w	r0, r0, r2
20000586:	fa01 fe03 	lsl.w	lr, r1, r3
2000058a:	ea40 000e 	orr.w	r0, r0, lr
2000058e:	fa21 f102 	lsr.w	r1, r1, r2
20000592:	4414      	add	r4, r2
20000594:	e6bd      	b.n	20000312 <__adddf3+0xe6>
20000596:	bf00      	nop

20000598 <__aeabi_uldivmod>:
20000598:	b953      	cbnz	r3, 200005b0 <__aeabi_uldivmod+0x18>
2000059a:	b94a      	cbnz	r2, 200005b0 <__aeabi_uldivmod+0x18>
2000059c:	2900      	cmp	r1, #0
2000059e:	bf08      	it	eq
200005a0:	2800      	cmpeq	r0, #0
200005a2:	bf1c      	itt	ne
200005a4:	f04f 31ff 	movne.w	r1, #4294967295
200005a8:	f04f 30ff 	movne.w	r0, #4294967295
200005ac:	f000 b9b2 	b.w	20000914 <__aeabi_idiv0>
200005b0:	f1ad 0c08 	sub.w	ip, sp, #8
200005b4:	e96d ce04 	strd	ip, lr, [sp, #-16]!
200005b8:	f000 f806 	bl	200005c8 <__udivmoddi4>
200005bc:	f8dd e004 	ldr.w	lr, [sp, #4]
200005c0:	e9dd 2302 	ldrd	r2, r3, [sp, #8]
200005c4:	b004      	add	sp, #16
200005c6:	4770      	bx	lr

200005c8 <__udivmoddi4>:
200005c8:	e92d 4ff0 	stmdb	sp!, {r4, r5, r6, r7, r8, r9, sl, fp, lr}
200005cc:	468c      	mov	ip, r1
200005ce:	9e09      	ldr	r6, [sp, #36]	@ 0x24
200005d0:	4604      	mov	r4, r0
200005d2:	460f      	mov	r7, r1
200005d4:	2b00      	cmp	r3, #0
200005d6:	d148      	bne.n	2000066a <__udivmoddi4+0xa2>
200005d8:	428a      	cmp	r2, r1
200005da:	4615      	mov	r5, r2
200005dc:	d95e      	bls.n	2000069c <__udivmoddi4+0xd4>
200005de:	fab2 f382 	clz	r3, r2
200005e2:	b13b      	cbz	r3, 200005f4 <__udivmoddi4+0x2c>
200005e4:	f1c3 0220 	rsb	r2, r3, #32
200005e8:	409f      	lsls	r7, r3
200005ea:	409d      	lsls	r5, r3
200005ec:	409c      	lsls	r4, r3
200005ee:	fa20 f202 	lsr.w	r2, r0, r2
200005f2:	4317      	orrs	r7, r2
200005f4:	ea4f 4e15 	mov.w	lr, r5, lsr #16
200005f8:	fa1f fc85 	uxth.w	ip, r5
200005fc:	0c22      	lsrs	r2, r4, #16
200005fe:	fbb7 f1fe 	udiv	r1, r7, lr
20000602:	fb0e 7711 	mls	r7, lr, r1, r7
20000606:	fb01 f00c 	mul.w	r0, r1, ip
2000060a:	ea42 4207 	orr.w	r2, r2, r7, lsl #16
2000060e:	4290      	cmp	r0, r2
20000610:	d907      	bls.n	20000622 <__udivmoddi4+0x5a>
20000612:	18aa      	adds	r2, r5, r2
20000614:	f101 37ff 	add.w	r7, r1, #4294967295
20000618:	d202      	bcs.n	20000620 <__udivmoddi4+0x58>
2000061a:	4290      	cmp	r0, r2
2000061c:	f200 8158 	bhi.w	200008d0 <__udivmoddi4+0x308>
20000620:	4639      	mov	r1, r7
20000622:	1a12      	subs	r2, r2, r0
20000624:	b2a4      	uxth	r4, r4
20000626:	fbb2 f0fe 	udiv	r0, r2, lr
2000062a:	fb0e 2210 	mls	r2, lr, r0, r2
2000062e:	fb00 fc0c 	mul.w	ip, r0, ip
20000632:	ea44 4402 	orr.w	r4, r4, r2, lsl #16
20000636:	45a4      	cmp	ip, r4
20000638:	d90b      	bls.n	20000652 <__udivmoddi4+0x8a>
2000063a:	192c      	adds	r4, r5, r4
2000063c:	f100 32ff 	add.w	r2, r0, #4294967295
20000640:	bf2c      	ite	cs
20000642:	2701      	movcs	r7, #1
20000644:	2700      	movcc	r7, #0
20000646:	45a4      	cmp	ip, r4
20000648:	d902      	bls.n	20000650 <__udivmoddi4+0x88>
2000064a:	2f00      	cmp	r7, #0
2000064c:	f000 8143 	beq.w	200008d6 <__udivmoddi4+0x30e>
20000650:	4610      	mov	r0, r2
20000652:	ea40 4001 	orr.w	r0, r0, r1, lsl #16
20000656:	eba4 040c 	sub.w	r4, r4, ip
2000065a:	2100      	movs	r1, #0
2000065c:	b11e      	cbz	r6, 20000666 <__udivmoddi4+0x9e>
2000065e:	40dc      	lsrs	r4, r3
20000660:	2300      	movs	r3, #0
20000662:	e9c6 4300 	strd	r4, r3, [r6]
20000666:	e8bd 8ff0 	ldmia.w	sp!, {r4, r5, r6, r7, r8, r9, sl, fp, pc}
2000066a:	428b      	cmp	r3, r1
2000066c:	d906      	bls.n	2000067c <__udivmoddi4+0xb4>
2000066e:	b10e      	cbz	r6, 20000674 <__udivmoddi4+0xac>
20000670:	e9c6 0100 	strd	r0, r1, [r6]
20000674:	2100      	movs	r1, #0
20000676:	4608      	mov	r0, r1
20000678:	e8bd 8ff0 	ldmia.w	sp!, {r4, r5, r6, r7, r8, r9, sl, fp, pc}
2000067c:	fab3 f183 	clz	r1, r3
20000680:	2900      	cmp	r1, #0
20000682:	d151      	bne.n	20000728 <__udivmoddi4+0x160>
20000684:	4563      	cmp	r3, ip
20000686:	f0c0 8116 	bcc.w	200008b6 <__udivmoddi4+0x2ee>
2000068a:	4282      	cmp	r2, r0
2000068c:	f240 8113 	bls.w	200008b6 <__udivmoddi4+0x2ee>
20000690:	4608      	mov	r0, r1
20000692:	2e00      	cmp	r6, #0
20000694:	d0e7      	beq.n	20000666 <__udivmoddi4+0x9e>
20000696:	e9c6 4700 	strd	r4, r7, [r6]
2000069a:	e7e4      	b.n	20000666 <__udivmoddi4+0x9e>
2000069c:	2a00      	cmp	r2, #0
2000069e:	f000 80af 	beq.w	20000800 <__udivmoddi4+0x238>
200006a2:	fab2 f382 	clz	r3, r2
200006a6:	2b00      	cmp	r3, #0
200006a8:	f040 80c2 	bne.w	20000830 <__udivmoddi4+0x268>
200006ac:	1a8a      	subs	r2, r1, r2
200006ae:	ea4f 4e15 	mov.w	lr, r5, lsr #16
200006b2:	b2af      	uxth	r7, r5
200006b4:	2101      	movs	r1, #1
200006b6:	0c20      	lsrs	r0, r4, #16
200006b8:	fbb2 fcfe 	udiv	ip, r2, lr
200006bc:	fb0e 221c 	mls	r2, lr, ip, r2
200006c0:	ea40 4202 	orr.w	r2, r0, r2, lsl #16
200006c4:	fb07 f00c 	mul.w	r0, r7, ip
200006c8:	4290      	cmp	r0, r2
200006ca:	d90e      	bls.n	200006ea <__udivmoddi4+0x122>
200006cc:	18aa      	adds	r2, r5, r2
200006ce:	f10c 38ff 	add.w	r8, ip, #4294967295
200006d2:	bf2c      	ite	cs
200006d4:	f04f 0901 	movcs.w	r9, #1
200006d8:	f04f 0900 	movcc.w	r9, #0
200006dc:	4290      	cmp	r0, r2
200006de:	d903      	bls.n	200006e8 <__udivmoddi4+0x120>
200006e0:	f1b9 0f00 	cmp.w	r9, #0
200006e4:	f000 80f0 	beq.w	200008c8 <__udivmoddi4+0x300>
200006e8:	46c4      	mov	ip, r8
200006ea:	1a12      	subs	r2, r2, r0
200006ec:	b2a4      	uxth	r4, r4
200006ee:	fbb2 f0fe 	udiv	r0, r2, lr
200006f2:	fb0e 2210 	mls	r2, lr, r0, r2
200006f6:	fb00 f707 	mul.w	r7, r0, r7
200006fa:	ea44 4402 	orr.w	r4, r4, r2, lsl #16
200006fe:	42a7      	cmp	r7, r4
20000700:	d90e      	bls.n	20000720 <__udivmoddi4+0x158>
20000702:	192c      	adds	r4, r5, r4
20000704:	f100 32ff 	add.w	r2, r0, #4294967295
20000708:	bf2c      	ite	cs
2000070a:	f04f 0e01 	movcs.w	lr, #1
2000070e:	f04f 0e00 	movcc.w	lr, #0
20000712:	42a7      	cmp	r7, r4
20000714:	d903      	bls.n	2000071e <__udivmoddi4+0x156>
20000716:	f1be 0f00 	cmp.w	lr, #0
2000071a:	f000 80d2 	beq.w	200008c2 <__udivmoddi4+0x2fa>
2000071e:	4610      	mov	r0, r2
20000720:	1be4      	subs	r4, r4, r7
20000722:	ea40 400c 	orr.w	r0, r0, ip, lsl #16
20000726:	e799      	b.n	2000065c <__udivmoddi4+0x94>
20000728:	f1c1 0520 	rsb	r5, r1, #32
2000072c:	408b      	lsls	r3, r1
2000072e:	fa0c f401 	lsl.w	r4, ip, r1
20000732:	fa00 f901 	lsl.w	r9, r0, r1
20000736:	fa22 f705 	lsr.w	r7, r2, r5
2000073a:	fa2c fc05 	lsr.w	ip, ip, r5
2000073e:	408a      	lsls	r2, r1
20000740:	431f      	orrs	r7, r3
20000742:	fa20 f305 	lsr.w	r3, r0, r5
20000746:	0c38      	lsrs	r0, r7, #16
20000748:	4323      	orrs	r3, r4
2000074a:	fa1f fe87 	uxth.w	lr, r7
2000074e:	0c1c      	lsrs	r4, r3, #16
20000750:	fbbc f8f0 	udiv	r8, ip, r0
20000754:	fb00 cc18 	mls	ip, r0, r8, ip
20000758:	ea44 440c 	orr.w	r4, r4, ip, lsl #16
2000075c:	fb08 fc0e 	mul.w	ip, r8, lr
20000760:	45a4      	cmp	ip, r4
20000762:	d90e      	bls.n	20000782 <__udivmoddi4+0x1ba>
20000764:	193c      	adds	r4, r7, r4
20000766:	f108 3aff 	add.w	sl, r8, #4294967295
2000076a:	bf2c      	ite	cs
2000076c:	f04f 0b01 	movcs.w	fp, #1
20000770:	f04f 0b00 	movcc.w	fp, #0
20000774:	45a4      	cmp	ip, r4
20000776:	d903      	bls.n	20000780 <__udivmoddi4+0x1b8>
20000778:	f1bb 0f00 	cmp.w	fp, #0
2000077c:	f000 80b8 	beq.w	200008f0 <__udivmoddi4+0x328>
20000780:	46d0      	mov	r8, sl
20000782:	eba4 040c 	sub.w	r4, r4, ip
20000786:	fa1f fc83 	uxth.w	ip, r3
2000078a:	fbb4 f3f0 	udiv	r3, r4, r0
2000078e:	fb00 4413 	mls	r4, r0, r3, r4
20000792:	fb03 fe0e 	mul.w	lr, r3, lr
20000796:	ea4c 4404 	orr.w	r4, ip, r4, lsl #16
2000079a:	45a6      	cmp	lr, r4
2000079c:	d90e      	bls.n	200007bc <__udivmoddi4+0x1f4>
2000079e:	193c      	adds	r4, r7, r4
200007a0:	f103 30ff 	add.w	r0, r3, #4294967295
200007a4:	bf2c      	ite	cs
200007a6:	f04f 0c01 	movcs.w	ip, #1
200007aa:	f04f 0c00 	movcc.w	ip, #0
200007ae:	45a6      	cmp	lr, r4
200007b0:	d903      	bls.n	200007ba <__udivmoddi4+0x1f2>
200007b2:	f1bc 0f00 	cmp.w	ip, #0
200007b6:	f000 809f 	beq.w	200008f8 <__udivmoddi4+0x330>
200007ba:	4603      	mov	r3, r0
200007bc:	ea43 4008 	orr.w	r0, r3, r8, lsl #16
200007c0:	eba4 040e 	sub.w	r4, r4, lr
200007c4:	fba0 ec02 	umull	lr, ip, r0, r2
200007c8:	4564      	cmp	r4, ip
200007ca:	4673      	mov	r3, lr
200007cc:	46e0      	mov	r8, ip
200007ce:	d302      	bcc.n	200007d6 <__udivmoddi4+0x20e>
200007d0:	d107      	bne.n	200007e2 <__udivmoddi4+0x21a>
200007d2:	45f1      	cmp	r9, lr
200007d4:	d205      	bcs.n	200007e2 <__udivmoddi4+0x21a>
200007d6:	ebbe 0302 	subs.w	r3, lr, r2
200007da:	eb6c 0c07 	sbc.w	ip, ip, r7
200007de:	3801      	subs	r0, #1
200007e0:	46e0      	mov	r8, ip
200007e2:	b15e      	cbz	r6, 200007fc <__udivmoddi4+0x234>
200007e4:	ebb9 0203 	subs.w	r2, r9, r3
200007e8:	eb64 0408 	sbc.w	r4, r4, r8
200007ec:	fa04 f505 	lsl.w	r5, r4, r5
200007f0:	fa22 f301 	lsr.w	r3, r2, r1
200007f4:	40cc      	lsrs	r4, r1
200007f6:	431d      	orrs	r5, r3
200007f8:	e9c6 5400 	strd	r5, r4, [r6]
200007fc:	2100      	movs	r1, #0
200007fe:	e732      	b.n	20000666 <__udivmoddi4+0x9e>
20000800:	0842      	lsrs	r2, r0, #1
20000802:	462f      	mov	r7, r5
20000804:	084b      	lsrs	r3, r1, #1
20000806:	46ac      	mov	ip, r5
20000808:	ea42 72c1 	orr.w	r2, r2, r1, lsl #31
2000080c:	46ae      	mov	lr, r5
2000080e:	07c4      	lsls	r4, r0, #31
20000810:	0c11      	lsrs	r1, r2, #16
20000812:	b292      	uxth	r2, r2
20000814:	ea41 4103 	orr.w	r1, r1, r3, lsl #16
20000818:	ea42 4201 	orr.w	r2, r2, r1, lsl #16
2000081c:	fbb1 f1f5 	udiv	r1, r1, r5
20000820:	fbb3 f0f5 	udiv	r0, r3, r5
20000824:	231f      	movs	r3, #31
20000826:	eba2 020c 	sub.w	r2, r2, ip
2000082a:	ea41 4100 	orr.w	r1, r1, r0, lsl #16
2000082e:	e742      	b.n	200006b6 <__udivmoddi4+0xee>
20000830:	409d      	lsls	r5, r3
20000832:	f1c3 0220 	rsb	r2, r3, #32
20000836:	4099      	lsls	r1, r3
20000838:	409c      	lsls	r4, r3
2000083a:	fa2c fc02 	lsr.w	ip, ip, r2
2000083e:	ea4f 4e15 	mov.w	lr, r5, lsr #16
20000842:	fa20 f202 	lsr.w	r2, r0, r2
20000846:	b2af      	uxth	r7, r5
20000848:	fbbc f8fe 	udiv	r8, ip, lr
2000084c:	430a      	orrs	r2, r1
2000084e:	fb0e cc18 	mls	ip, lr, r8, ip
20000852:	0c11      	lsrs	r1, r2, #16
20000854:	ea41 410c 	orr.w	r1, r1, ip, lsl #16
20000858:	fb08 fc07 	mul.w	ip, r8, r7
2000085c:	458c      	cmp	ip, r1
2000085e:	d950      	bls.n	20000902 <__udivmoddi4+0x33a>
20000860:	1869      	adds	r1, r5, r1
20000862:	f108 30ff 	add.w	r0, r8, #4294967295
20000866:	bf2c      	ite	cs
20000868:	f04f 0901 	movcs.w	r9, #1
2000086c:	f04f 0900 	movcc.w	r9, #0
20000870:	458c      	cmp	ip, r1
20000872:	d902      	bls.n	2000087a <__udivmoddi4+0x2b2>
20000874:	f1b9 0f00 	cmp.w	r9, #0
20000878:	d030      	beq.n	200008dc <__udivmoddi4+0x314>
2000087a:	eba1 010c 	sub.w	r1, r1, ip
2000087e:	fbb1 f8fe 	udiv	r8, r1, lr
20000882:	fb08 fc07 	mul.w	ip, r8, r7
20000886:	fb0e 1118 	mls	r1, lr, r8, r1
2000088a:	b292      	uxth	r2, r2
2000088c:	ea42 4201 	orr.w	r2, r2, r1, lsl #16
20000890:	4562      	cmp	r2, ip
20000892:	d234      	bcs.n	200008fe <__udivmoddi4+0x336>
20000894:	18aa      	adds	r2, r5, r2
20000896:	f108 31ff 	add.w	r1, r8, #4294967295
2000089a:	bf2c      	ite	cs
2000089c:	f04f 0901 	movcs.w	r9, #1
200008a0:	f04f 0900 	movcc.w	r9, #0
200008a4:	4562      	cmp	r2, ip
200008a6:	d2be      	bcs.n	20000826 <__udivmoddi4+0x25e>
200008a8:	f1b9 0f00 	cmp.w	r9, #0
200008ac:	d1bb      	bne.n	20000826 <__udivmoddi4+0x25e>
200008ae:	f1a8 0102 	sub.w	r1, r8, #2
200008b2:	442a      	add	r2, r5
200008b4:	e7b7      	b.n	20000826 <__udivmoddi4+0x25e>
200008b6:	1a84      	subs	r4, r0, r2
200008b8:	eb6c 0203 	sbc.w	r2, ip, r3
200008bc:	2001      	movs	r0, #1
200008be:	4617      	mov	r7, r2
200008c0:	e6e7      	b.n	20000692 <__udivmoddi4+0xca>
200008c2:	442c      	add	r4, r5
200008c4:	3802      	subs	r0, #2
200008c6:	e72b      	b.n	20000720 <__udivmoddi4+0x158>
200008c8:	f1ac 0c02 	sub.w	ip, ip, #2
200008cc:	442a      	add	r2, r5
200008ce:	e70c      	b.n	200006ea <__udivmoddi4+0x122>
200008d0:	3902      	subs	r1, #2
200008d2:	442a      	add	r2, r5
200008d4:	e6a5      	b.n	20000622 <__udivmoddi4+0x5a>
200008d6:	442c      	add	r4, r5
200008d8:	3802      	subs	r0, #2
200008da:	e6ba      	b.n	20000652 <__udivmoddi4+0x8a>
200008dc:	eba5 0c0c 	sub.w	ip, r5, ip
200008e0:	f1a8 0002 	sub.w	r0, r8, #2
200008e4:	4461      	add	r1, ip
200008e6:	fbb1 f8fe 	udiv	r8, r1, lr
200008ea:	fb08 fc07 	mul.w	ip, r8, r7
200008ee:	e7ca      	b.n	20000886 <__udivmoddi4+0x2be>
200008f0:	f1a8 0802 	sub.w	r8, r8, #2
200008f4:	443c      	add	r4, r7
200008f6:	e744      	b.n	20000782 <__udivmoddi4+0x1ba>
200008f8:	3b02      	subs	r3, #2
200008fa:	443c      	add	r4, r7
200008fc:	e75e      	b.n	200007bc <__udivmoddi4+0x1f4>
200008fe:	4641      	mov	r1, r8
20000900:	e791      	b.n	20000826 <__udivmoddi4+0x25e>
20000902:	eba1 010c 	sub.w	r1, r1, ip
20000906:	4640      	mov	r0, r8
20000908:	fbb1 f8fe 	udiv	r8, r1, lr
2000090c:	fb08 fc07 	mul.w	ip, r8, r7
20000910:	e7b9      	b.n	20000886 <__udivmoddi4+0x2be>
20000912:	bf00      	nop

20000914 <__aeabi_idiv0>:
20000914:	4770      	bx	lr
20000916:	bf00      	nop

20000918 <__best_effort_wfe_or_timeout_veneer>:
20000918:	f85f f000 	ldr.w	pc, [pc]	@ 2000091c <__best_effort_wfe_or_timeout_veneer+0x4>
2000091c:	10000c89 	.word	0x10000c89

20000920 <cooler>:
20000920:	00000010 00000000 00000000 000030d3     .............0..
20000930:	0000000a                                ....

20000934 <striped_spin_lock_num>:
20000934:	00000010                                ....

20000938 <default_alarm_pool>:
	...
2000094c:	20000ec0                                ... 

20000950 <i2c0_inst>:
20000950:	40090000 00000000                       ...@....

20000958 <ucPrimaryCoreNum>:
20000958:	000000ff                                ....

2000095c <ulCriticalNesting>:
2000095c:	aaaaaaaa                                ....

20000960 <__malloc_sbrk_base>:
20000960:	ffffffff                                ....

20000964 <__malloc_trim_threshold>:
20000964:	00020000                                ....

20000968 <__malloc_av_>:
	...
20000970:	20000968 20000968 20000970 20000970     h.. h.. p.. p.. 
20000980:	20000978 20000978 20000980 20000980     x.. x.. ... ... 
20000990:	20000988 20000988 20000990 20000990     ... ... ... ... 
200009a0:	20000998 20000998 200009a0 200009a0     ... ... ... ... 
200009b0:	200009a8 200009a8 200009b0 200009b0     ... ... ... ... 
200009c0:	200009b8 200009b8 200009c0 200009c0     ... ... ... ... 
200009d0:	200009c8 200009c8 200009d0 200009d0     ... ... ... ... 
200009e0:	200009d8 200009d8 200009e0 200009e0     ... ... ... ... 
200009f0:	200009e8 200009e8 200009f0 200009f0     ... ... ... ... 
20000a00:	200009f8 200009f8 20000a00 20000a00     ... ... ... ... 
20000a10:	20000a08 20000a08 20000a10 20000a10     ... ... ... ... 
20000a20:	20000a18 20000a18 20000a20 20000a20     ... ...  ..  .. 
20000a30:	20000a28 20000a28 20000a30 20000a30     (.. (.. 0.. 0.. 
20000a40:	20000a38 20000a38 20000a40 20000a40     8.. 8.. @.. @.. 
20000a50:	20000a48 20000a48 20000a50 20000a50     H.. H.. P.. P.. 
20000a60:	20000a58 20000a58 20000a60 20000a60     X.. X.. `.. `.. 
20000a70:	20000a68 20000a68 20000a70 20000a70     h.. h.. p.. p.. 
20000a80:	20000a78 20000a78 20000a80 20000a80     x.. x.. ... ... 
20000a90:	20000a88 20000a88 20000a90 20000a90     ... ... ... ... 
20000aa0:	20000a98 20000a98 20000aa0 20000aa0     ... ... ... ... 
20000ab0:	20000aa8 20000aa8 20000ab0 20000ab0     ... ... ... ... 
20000ac0:	20000ab8 20000ab8 20000ac0 20000ac0     ... ... ... ... 
20000ad0:	20000ac8 20000ac8 20000ad0 20000ad0     ... ... ... ... 
20000ae0:	20000ad8 20000ad8 20000ae0 20000ae0     ... ... ... ... 
20000af0:	20000ae8 20000ae8 20000af0 20000af0     ... ... ... ... 
20000b00:	20000af8 20000af8 20000b00 20000b00     ... ... ... ... 
20000b10:	20000b08 20000b08 20000b10 20000b10     ... ... ... ... 
20000b20:	20000b18 20000b18 20000b20 20000b20     ... ...  ..  .. 
20000b30:	20000b28 20000b28 20000b30 20000b30     (.. (.. 0.. 0.. 
20000b40:	20000b38 20000b38 20000b40 20000b40     8.. 8.. @.. @.. 
20000b50:	20000b48 20000b48 20000b50 20000b50     H.. H.. P.. P.. 
20000b60:	20000b58 20000b58 20000b60 20000b60     X.. X.. `.. `.. 
20000b70:	20000b68 20000b68 20000b70 20000b70     h.. h.. p.. p.. 
20000b80:	20000b78 20000b78 20000b80 20000b80     x.. x.. ... ... 
20000b90:	20000b88 20000b88 20000b90 20000b90     ... ... ... ... 
20000ba0:	20000b98 20000b98 20000ba0 20000ba0     ... ... ... ... 
20000bb0:	20000ba8 20000ba8 20000bb0 20000bb0     ... ... ... ... 
20000bc0:	20000bb8 20000bb8 20000bc0 20000bc0     ... ... ... ... 
20000bd0:	20000bc8 20000bc8 20000bd0 20000bd0     ... ... ... ... 
20000be0:	20000bd8 20000bd8 20000be0 20000be0     ... ... ... ... 
20000bf0:	20000be8 20000be8 20000bf0 20000bf0     ... ... ... ... 
20000c00:	20000bf8 20000bf8 20000c00 20000c00     ... ... ... ... 
20000c10:	20000c08 20000c08 20000c10 20000c10     ... ... ... ... 
20000c20:	20000c18 20000c18 20000c20 20000c20     ... ...  ..  .. 
20000c30:	20000c28 20000c28 20000c30 20000c30     (.. (.. 0.. 0.. 
20000c40:	20000c38 20000c38 20000c40 20000c40     8.. 8.. @.. @.. 
20000c50:	20000c48 20000c48 20000c50 20000c50     H.. H.. P.. P.. 
20000c60:	20000c58 20000c58 20000c60 20000c60     X.. X.. `.. `.. 
20000c70:	20000c68 20000c68 20000c70 20000c70     h.. h.. p.. p.. 
20000c80:	20000c78 20000c78 20000c80 20000c80     x.. x.. ... ... 
20000c90:	20000c88 20000c88 20000c90 20000c90     ... ... ... ... 
20000ca0:	20000c98 20000c98 20000ca0 20000ca0     ... ... ... ... 
20000cb0:	20000ca8 20000ca8 20000cb0 20000cb0     ... ... ... ... 
20000cc0:	20000cb8 20000cb8 20000cc0 20000cc0     ... ... ... ... 
20000cd0:	20000cc8 20000cc8 20000cd0 20000cd0     ... ... ... ... 
20000ce0:	20000cd8 20000cd8 20000ce0 20000ce0     ... ... ... ... 
20000cf0:	20000ce8 20000ce8 20000cf0 20000cf0     ... ... ... ... 
20000d00:	20000cf8 20000cf8 20000d00 20000d00     ... ... ... ... 
20000d10:	20000d08 20000d08 20000d10 20000d10     ... ... ... ... 
20000d20:	20000d18 20000d18 20000d20 20000d20     ... ...  ..  .. 
20000d30:	20000d28 20000d28 20000d30 20000d30     (.. (.. 0.. 0.. 
20000d40:	20000d38 20000d38 20000d40 20000d40     8.. 8.. @.. @.. 
20000d50:	20000d48 20000d48 20000d50 20000d50     H.. H.. P.. P.. 
20000d60:	20000d58 20000d58 20000d60 20000d60     X.. X.. `.. `.. 

20000d70 <_impure_ptr>:
20000d70:	20000d78 00000000                       x.. ....

20000d78 <_impure_data>:
20000d78:	00000000 200010c8 20001130 20001198     ....... 0.. ... 
	...
20000e10:	00000001 00000000 abcd330e e66d1234     .........3..4.m.
20000e20:	0005deec 0000000b 00000000 00000000     ................
	...

20000eb8 <print_mutex>:
	...
